; Listing generated by Microsoft (R) Optimizing Compiler Version 15.00.30729.01 

	TITLE	c:\Users\User\Desktop\ComputerGraphicsProject\Viewer\main.cpp
	.686P
	.XMM
	include listing.inc
	.model	flat

INCLUDELIB LIBCMTD
INCLUDELIB OLDNAMES

PUBLIC	?filter@@3IA					; filter
PUBLIC	?set@@3USettings@@A				; set
PUBLIC	?g_frameTime@@3MA				; g_frameTime
PUBLIC	?fogMode@@3PAIA					; fogMode
PUBLIC	?fogfilter@@3IA					; fogfilter
PUBLIC	?fogColor@@3PAMA				; fogColor
_BSS	SEGMENT
?filter@@3IA DD	01H DUP (?)				; filter
?set@@3USettings@@A DB 080H DUP (?)			; set
?g_frameTime@@3MA DD 01H DUP (?)			; g_frameTime
_RandGen DB	01H DUP (?)
	ALIGN	4

_Snap	DB	01H DUP (?)
	ALIGN	4

?fogfilter@@3IA DD 01H DUP (?)				; fogfilter
?lastTime@?1??appRender@@YA_NXZ@4MA DD 01H DUP (?)	; `appRender'::`2'::lastTime
?frameCounter@?1??appRender@@YA_NXZ@4KA DD 01H DUP (?)	; `appRender'::`2'::frameCounter
_BSS	ENDS
_DATA	SEGMENT
_waterHeight DD	03dcccccdr			; 0.1
_FOV	DD	042700000r			; 60
_rand_seed DD	03ca3d70ar			; 0.02
?fogMode@@3PAIA DD 0800H				; fogMode
	DD	0801H
	DD	02601H
?fogColor@@3PAMA DD 03f000000r			; 0.5	; fogColor
	DD	03f000000r			; 0.5
	DD	03f000000r			; 0.5
	DD	03f800000r			; 1
_DATA	ENDS
PUBLIC	?appGetTitleBar@@YAPADXZ			; appGetTitleBar
EXTRN	__RTC_Shutdown:PROC
EXTRN	__RTC_InitBase:PROC
_BSS	SEGMENT
_titleBar DB	0400H DUP (?)
_BSS	ENDS
;	COMDAT rtc$TMZ
; File c:\users\user\desktop\computergraphicsproject\viewer\main.cpp
rtc$TMZ	SEGMENT
__RTC_Shutdown.rtc$TMZ DD FLAT:__RTC_Shutdown
rtc$TMZ	ENDS
;	COMDAT rtc$IMZ
rtc$IMZ	SEGMENT
__RTC_InitBase.rtc$IMZ DD FLAT:__RTC_InitBase
; Function compile flags: /Odtp /RTCsu /ZI
rtc$IMZ	ENDS
;	COMDAT ?appGetTitleBar@@YAPADXZ
_TEXT	SEGMENT
?appGetTitleBar@@YAPADXZ PROC				; appGetTitleBar, COMDAT

; 40   : char *appGetTitleBar()      {return titleBar;}

	push	ebp
	mov	ebp, esp
	sub	esp, 192				; 000000c0H
	push	ebx
	push	esi
	push	edi
	lea	edi, DWORD PTR [ebp-192]
	mov	ecx, 48					; 00000030H
	mov	eax, -858993460				; ccccccccH
	rep stosd
	mov	eax, OFFSET _titleBar
	pop	edi
	pop	esi
	pop	ebx
	mov	esp, ebp
	pop	ebp
	ret	0
?appGetTitleBar@@YAPADXZ ENDP				; appGetTitleBar
_TEXT	ENDS
PUBLIC	?DeleteEnterChars@@YAXPAD@Z			; DeleteEnterChars
; Function compile flags: /Odtp /RTCsu /ZI
;	COMDAT ?DeleteEnterChars@@YAXPAD@Z
_TEXT	SEGMENT
_i$ = -8						; size = 4
_Str$ = 8						; size = 4
?DeleteEnterChars@@YAXPAD@Z PROC			; DeleteEnterChars, COMDAT

; 43   : {

	push	ebp
	mov	ebp, esp
	sub	esp, 204				; 000000ccH
	push	ebx
	push	esi
	push	edi
	lea	edi, DWORD PTR [ebp-204]
	mov	ecx, 51					; 00000033H
	mov	eax, -858993460				; ccccccccH
	rep stosd

; 44   : 	int i = 0;

	mov	DWORD PTR _i$[ebp], 0
$LN3@DeleteEnte:

; 45   : 	while (Str[i] != (char)0)

	mov	eax, DWORD PTR _Str$[ebp]
	add	eax, DWORD PTR _i$[ebp]
	movsx	ecx, BYTE PTR [eax]
	test	ecx, ecx
	je	SHORT $LN4@DeleteEnte

; 46   : 	{
; 47   : 		if (Str[i] == (char)10)

	mov	eax, DWORD PTR _Str$[ebp]
	add	eax, DWORD PTR _i$[ebp]
	movsx	ecx, BYTE PTR [eax]
	cmp	ecx, 10					; 0000000aH
	jne	SHORT $LN1@DeleteEnte

; 48   : 			Str[i] = (char)0;

	mov	eax, DWORD PTR _Str$[ebp]
	add	eax, DWORD PTR _i$[ebp]
	mov	BYTE PTR [eax], 0
$LN1@DeleteEnte:

; 49   : 		i++;

	mov	eax, DWORD PTR _i$[ebp]
	add	eax, 1
	mov	DWORD PTR _i$[ebp], eax

; 50   : 	}

	jmp	SHORT $LN3@DeleteEnte
$LN4@DeleteEnte:

; 51   : }

	pop	edi
	pop	esi
	pop	ebx
	mov	esp, ebp
	pop	ebp
	ret	0
?DeleteEnterChars@@YAXPAD@Z ENDP			; DeleteEnterChars
_TEXT	ENDS
PUBLIC	??_C@_04FPMMHJFC@?4jpe?$AA@			; `string'
PUBLIC	??_C@_05KPIGABMB@?4jpeg?$AA@			; `string'
PUBLIC	??_C@_04GNPKBLNA@?4jpg?$AA@			; `string'
PUBLIC	??_C@_04LJDDIHIK@?4bmp?$AA@			; `string'
PUBLIC	??$strcpy_s@$09@@YAHAAY09DPBD@Z			; strcpy_s<10>
PUBLIC	?strrchr@@YAPADPADH@Z				; strrchr
PUBLIC	__$ArrayPad$
PUBLIC	?LoadTexture@@YAXPAVTexture@@PAD1@Z		; LoadTexture
EXTRN	??1Image@@UAE@XZ:PROC				; Image::~Image
EXTRN	?Free@Image@@UAEXXZ:PROC			; Image::Free
EXTRN	?Create@Texture@@QAE_NPAVImage@@0@Z:PROC	; Texture::Create
EXTRN	?imgLoadJPG@@YA_NPADPAVImage@@@Z:PROC		; imgLoadJPG
EXTRN	?Create@Image@@QAE_NPADP6A_N0PAV1@@Z@Z:PROC	; Image::Create
EXTRN	?imgLoadBMP@@YA_NPADPAVImage@@@Z:PROC		; imgLoadBMP
EXTRN	_strcmp:PROC
EXTRN	??0Image@@QAE@XZ:PROC				; Image::Image
EXTRN	___security_cookie:DWORD
EXTRN	___CxxFrameHandler3:PROC
EXTRN	__RTC_CheckEsp:PROC
EXTRN	@__security_check_cookie@4:PROC
EXTRN	@_RTC_CheckStackVars@8:PROC
;	COMDAT ??_C@_04FPMMHJFC@?4jpe?$AA@
CONST	SEGMENT
??_C@_04FPMMHJFC@?4jpe?$AA@ DB '.jpe', 00H		; `string'
CONST	ENDS
;	COMDAT ??_C@_05KPIGABMB@?4jpeg?$AA@
CONST	SEGMENT
??_C@_05KPIGABMB@?4jpeg?$AA@ DB '.jpeg', 00H		; `string'
CONST	ENDS
;	COMDAT ??_C@_04GNPKBLNA@?4jpg?$AA@
CONST	SEGMENT
??_C@_04GNPKBLNA@?4jpg?$AA@ DB '.jpg', 00H		; `string'
CONST	ENDS
;	COMDAT ??_C@_04LJDDIHIK@?4bmp?$AA@
CONST	SEGMENT
??_C@_04LJDDIHIK@?4bmp?$AA@ DB '.bmp', 00H		; `string'
CONST	ENDS
;	COMDAT xdata$x
xdata$x	SEGMENT
__unwindtable$?LoadTexture@@YAXPAVTexture@@PAD1@Z DD 0ffffffffH
	DD	FLAT:__unwindfunclet$?LoadTexture@@YAXPAVTexture@@PAD1@Z$0
	DD	00H
	DD	FLAT:__unwindfunclet$?LoadTexture@@YAXPAVTexture@@PAD1@Z$1
__ehfuncinfo$?LoadTexture@@YAXPAVTexture@@PAD1@Z DD 019930522H
	DD	02H
	DD	FLAT:__unwindtable$?LoadTexture@@YAXPAVTexture@@PAD1@Z
	DD	2 DUP(00H)
	DD	2 DUP(00H)
	DD	00H
	DD	01H
; Function compile flags: /Odtp /RTCsu /ZI
xdata$x	ENDS
;	COMDAT ?LoadTexture@@YAXPAVTexture@@PAD1@Z
_TEXT	SEGMENT
_imgTmp2$33158 = -104					; size = 28
_Ext$ = -68						; size = 10
_imgTmp$ = -48						; size = 28
__$ArrayPad$ = -16					; size = 4
__$EHRec$ = -12						; size = 12
_pTex$ = 8						; size = 4
_pName$ = 12						; size = 4
_pName2$ = 16						; size = 4
?LoadTexture@@YAXPAVTexture@@PAD1@Z PROC		; LoadTexture, COMDAT

; 54   : {

	push	ebp
	mov	ebp, esp
	push	-1
	push	__ehhandler$?LoadTexture@@YAXPAVTexture@@PAD1@Z
	mov	eax, DWORD PTR fs:0
	push	eax
	sub	esp, 288				; 00000120H
	push	ebx
	push	esi
	push	edi
	lea	edi, DWORD PTR [ebp-300]
	mov	ecx, 72					; 00000048H
	mov	eax, -858993460				; ccccccccH
	rep stosd
	mov	eax, DWORD PTR ___security_cookie
	xor	eax, ebp
	mov	DWORD PTR __$ArrayPad$[ebp], eax
	push	eax
	lea	eax, DWORD PTR __$EHRec$[ebp]
	mov	DWORD PTR fs:0, eax

; 55   : 	Image imgTmp;

	lea	ecx, DWORD PTR _imgTmp$[ebp]
	call	??0Image@@QAE@XZ			; Image::Image
	mov	DWORD PTR __$EHRec$[ebp+8], 0

; 56   : 
; 57   : 	char Ext[10];
; 58   : 	strcpy_s(Ext, strrchr(pName, (int)'.'));

	push	46					; 0000002eH
	mov	eax, DWORD PTR _pName$[ebp]
	push	eax
	call	?strrchr@@YAPADPADH@Z			; strrchr
	add	esp, 8
	push	eax
	lea	ecx, DWORD PTR _Ext$[ebp]
	push	ecx
	call	??$strcpy_s@$09@@YAHAAY09DPBD@Z		; strcpy_s<10>
	add	esp, 8

; 59   : 	
; 60   : 	if (!strcmp(Ext, ".bmp"))

	push	OFFSET ??_C@_04LJDDIHIK@?4bmp?$AA@
	lea	eax, DWORD PTR _Ext$[ebp]
	push	eax
	call	_strcmp
	add	esp, 8
	test	eax, eax
	jne	SHORT $LN6@LoadTextur

; 61   : 		imgTmp.Create(pName, imgLoadBMP);

	push	OFFSET ?imgLoadBMP@@YA_NPADPAVImage@@@Z	; imgLoadBMP
	mov	eax, DWORD PTR _pName$[ebp]
	push	eax
	lea	ecx, DWORD PTR _imgTmp$[ebp]
	call	?Create@Image@@QAE_NPADP6A_N0PAV1@@Z@Z	; Image::Create

; 62   : 	else

	jmp	SHORT $LN5@LoadTextur
$LN6@LoadTextur:

; 63   : 	if (!strcmp(Ext, ".jpg") || strcmp(Ext, ".jpeg") || strcmp(Ext, ".jpe"))

	push	OFFSET ??_C@_04GNPKBLNA@?4jpg?$AA@
	lea	eax, DWORD PTR _Ext$[ebp]
	push	eax
	call	_strcmp
	add	esp, 8
	test	eax, eax
	je	SHORT $LN3@LoadTextur
	push	OFFSET ??_C@_05KPIGABMB@?4jpeg?$AA@
	lea	eax, DWORD PTR _Ext$[ebp]
	push	eax
	call	_strcmp
	add	esp, 8
	test	eax, eax
	jne	SHORT $LN3@LoadTextur
	push	OFFSET ??_C@_04FPMMHJFC@?4jpe?$AA@
	lea	eax, DWORD PTR _Ext$[ebp]
	push	eax
	call	_strcmp
	add	esp, 8
	test	eax, eax
	je	SHORT $LN5@LoadTextur
$LN3@LoadTextur:

; 64   : 		imgTmp.Create(pName, imgLoadJPG);

	push	OFFSET ?imgLoadJPG@@YA_NPADPAVImage@@@Z	; imgLoadJPG
	mov	eax, DWORD PTR _pName$[ebp]
	push	eax
	lea	ecx, DWORD PTR _imgTmp$[ebp]
	call	?Create@Image@@QAE_NPADP6A_N0PAV1@@Z@Z	; Image::Create
$LN5@LoadTextur:

; 65   : 
; 66   : 	if (pName2)

	cmp	DWORD PTR _pName2$[ebp], 0
	je	SHORT $LN2@LoadTextur

; 67   : 	{
; 68   : 		Image imgTmp2;

	lea	ecx, DWORD PTR _imgTmp2$33158[ebp]
	call	??0Image@@QAE@XZ			; Image::Image
	mov	BYTE PTR __$EHRec$[ebp+8], 1

; 69   : 		imgTmp2.Create(pName2, imgLoadBMP);

	push	OFFSET ?imgLoadBMP@@YA_NPADPAVImage@@@Z	; imgLoadBMP
	mov	eax, DWORD PTR _pName2$[ebp]
	push	eax
	lea	ecx, DWORD PTR _imgTmp2$33158[ebp]
	call	?Create@Image@@QAE_NPADP6A_N0PAV1@@Z@Z	; Image::Create

; 70   : 		pTex->Create( &imgTmp, &imgTmp2 ); 

	lea	eax, DWORD PTR _imgTmp2$33158[ebp]
	push	eax
	lea	ecx, DWORD PTR _imgTmp$[ebp]
	push	ecx
	mov	ecx, DWORD PTR _pTex$[ebp]
	call	?Create@Texture@@QAE_NPAVImage@@0@Z	; Texture::Create

; 71   : 		imgTmp.Free();

	lea	ecx, DWORD PTR _imgTmp$[ebp]
	call	?Free@Image@@UAEXXZ			; Image::Free

; 72   : 	}

	mov	BYTE PTR __$EHRec$[ebp+8], 0
	lea	ecx, DWORD PTR _imgTmp2$33158[ebp]
	call	??1Image@@UAE@XZ			; Image::~Image

; 73   : 	else

	jmp	SHORT $LN1@LoadTextur
$LN2@LoadTextur:

; 74   : 		pTex->Create( &imgTmp ); 

	push	0
	lea	eax, DWORD PTR _imgTmp$[ebp]
	push	eax
	mov	ecx, DWORD PTR _pTex$[ebp]
	call	?Create@Texture@@QAE_NPAVImage@@0@Z	; Texture::Create
$LN1@LoadTextur:

; 75   : 
; 76   : 	imgTmp.Free();

	lea	ecx, DWORD PTR _imgTmp$[ebp]
	call	?Free@Image@@UAEXXZ			; Image::Free

; 77   : }

	mov	DWORD PTR __$EHRec$[ebp+8], -1
	lea	ecx, DWORD PTR _imgTmp$[ebp]
	call	??1Image@@UAE@XZ			; Image::~Image
	push	edx
	mov	ecx, ebp
	push	eax
	lea	edx, DWORD PTR $LN16@LoadTextur
	call	@_RTC_CheckStackVars@8
	pop	eax
	pop	edx
	mov	ecx, DWORD PTR __$EHRec$[ebp]
	mov	DWORD PTR fs:0, ecx
	pop	ecx
	pop	edi
	pop	esi
	pop	ebx
	mov	ecx, DWORD PTR __$ArrayPad$[ebp]
	xor	ecx, ebp
	call	@__security_check_cookie@4
	add	esp, 300				; 0000012cH
	cmp	ebp, esp
	call	__RTC_CheckEsp
	mov	esp, ebp
	pop	ebp
	ret	0
	npad	2
$LN16@LoadTextur:
	DD	3
	DD	$LN15@LoadTextur
$LN15@LoadTextur:
	DD	-48					; ffffffd0H
	DD	28					; 0000001cH
	DD	$LN11@LoadTextur
	DD	-68					; ffffffbcH
	DD	10					; 0000000aH
	DD	$LN12@LoadTextur
	DD	-104					; ffffff98H
	DD	28					; 0000001cH
	DD	$LN13@LoadTextur
$LN13@LoadTextur:
	DB	105					; 00000069H
	DB	109					; 0000006dH
	DB	103					; 00000067H
	DB	84					; 00000054H
	DB	109					; 0000006dH
	DB	112					; 00000070H
	DB	50					; 00000032H
	DB	0
$LN12@LoadTextur:
	DB	69					; 00000045H
	DB	120					; 00000078H
	DB	116					; 00000074H
	DB	0
$LN11@LoadTextur:
	DB	105					; 00000069H
	DB	109					; 0000006dH
	DB	103					; 00000067H
	DB	84					; 00000054H
	DB	109					; 0000006dH
	DB	112					; 00000070H
	DB	0
_TEXT	ENDS
;	COMDAT text$x
text$x	SEGMENT
__unwindfunclet$?LoadTexture@@YAXPAVTexture@@PAD1@Z$0:
	lea	ecx, DWORD PTR _imgTmp$[ebp]
	jmp	??1Image@@UAE@XZ			; Image::~Image
__unwindfunclet$?LoadTexture@@YAXPAVTexture@@PAD1@Z$1:
	lea	ecx, DWORD PTR _imgTmp2$33158[ebp]
	jmp	??1Image@@UAE@XZ			; Image::~Image
__ehhandler$?LoadTexture@@YAXPAVTexture@@PAD1@Z:
	mov	edx, DWORD PTR [esp+8]
	lea	eax, DWORD PTR [edx+12]
	mov	ecx, DWORD PTR [edx-304]
	xor	ecx, eax
	call	@__security_check_cookie@4
	mov	ecx, DWORD PTR [edx-4]
	xor	ecx, eax
	call	@__security_check_cookie@4
	mov	eax, OFFSET __ehfuncinfo$?LoadTexture@@YAXPAVTexture@@PAD1@Z
	jmp	___CxxFrameHandler3
text$x	ENDS
?LoadTexture@@YAXPAVTexture@@PAD1@Z ENDP		; LoadTexture
EXTRN	_strrchr:PROC
; Function compile flags: /Odtp /RTCsu /ZI
; File c:\program files (x86)\microsoft visual studio 9.0\vc\include\string.h
;	COMDAT ?strrchr@@YAPADPADH@Z
_TEXT	SEGMENT
__Str$ = 8						; size = 4
__Ch$ = 12						; size = 4
?strrchr@@YAPADPADH@Z PROC				; strrchr, COMDAT

; 188  : 	{ return (char*)strrchr((const char*)_Str, _Ch); }

	push	ebp
	mov	ebp, esp
	sub	esp, 192				; 000000c0H
	push	ebx
	push	esi
	push	edi
	lea	edi, DWORD PTR [ebp-192]
	mov	ecx, 48					; 00000030H
	mov	eax, -858993460				; ccccccccH
	rep stosd
	mov	eax, DWORD PTR __Ch$[ebp]
	push	eax
	mov	ecx, DWORD PTR __Str$[ebp]
	push	ecx
	call	_strrchr
	add	esp, 8
	pop	edi
	pop	esi
	pop	ebx
	add	esp, 192				; 000000c0H
	cmp	ebp, esp
	call	__RTC_CheckEsp
	mov	esp, ebp
	pop	ebp
	ret	0
?strrchr@@YAPADPADH@Z ENDP				; strrchr
_TEXT	ENDS
PUBLIC	??_C@_0BA@MIMJMBKA@data?1detail?4bmp?$AA@	; `string'
PUBLIC	??_C@_0O@BPAHFFP@Heightmap?4bmp?$AA@		; `string'
PUBLIC	__real@00000000
PUBLIC	??0Vector@@QAE@MMM@Z				; Vector::Vector
PUBLIC	__real@43480000
PUBLIC	__real@447a0000
PUBLIC	__real@3ecccccd
PUBLIC	??_C@_0N@JJDEOCMA@Lightmap?4bmp?$AA@		; `string'
PUBLIC	??_C@_0M@JFJFHKFL@Texture?4bmp?$AA@		; `string'
PUBLIC	??_C@_01KDCPPGHE@r?$AA@				; `string'
PUBLIC	__$ArrayPad$
PUBLIC	?LoadSettings@@YAXPAD@Z				; LoadSettings
EXTRN	??3@YAXPAX@Z:PROC				; operator delete
EXTRN	?SetTextures@Terrain@@QAEXPAVTexture@@000@Z:PROC ; Terrain::SetTextures
EXTRN	?SetHeightmapTerrain@Terrain@@QAEXPADAAVVector@@1M@Z:PROC ; Terrain::SetHeightmapTerrain
EXTRN	??0Terrain@@QAE@XZ:PROC				; Terrain::Terrain
EXTRN	??2@YAPAXI@Z:PROC				; operator new
EXTRN	_strcat:PROC
EXTRN	_strcpy:PROC
EXTRN	_fgets:PROC
EXTRN	_fopen_s:PROC
EXTRN	__fltused:DWORD
_BSS	SEGMENT
_pTerrain DD	01H DUP (?)
_BSS	ENDS
;	COMDAT ??_C@_0BA@MIMJMBKA@data?1detail?4bmp?$AA@
; File c:\users\user\desktop\computergraphicsproject\viewer\main.cpp
CONST	SEGMENT
??_C@_0BA@MIMJMBKA@data?1detail?4bmp?$AA@ DB 'data/detail.bmp', 00H ; `string'
CONST	ENDS
;	COMDAT ??_C@_0O@BPAHFFP@Heightmap?4bmp?$AA@
CONST	SEGMENT
??_C@_0O@BPAHFFP@Heightmap?4bmp?$AA@ DB 'Heightmap.bmp', 00H ; `string'
CONST	ENDS
;	COMDAT __real@00000000
CONST	SEGMENT
__real@00000000 DD 000000000r			; 0
CONST	ENDS
;	COMDAT __real@43480000
CONST	SEGMENT
__real@43480000 DD 043480000r			; 200
CONST	ENDS
;	COMDAT __real@447a0000
CONST	SEGMENT
__real@447a0000 DD 0447a0000r			; 1000
CONST	ENDS
;	COMDAT __real@3ecccccd
CONST	SEGMENT
__real@3ecccccd DD 03ecccccdr			; 0.4
CONST	ENDS
;	COMDAT ??_C@_0N@JJDEOCMA@Lightmap?4bmp?$AA@
CONST	SEGMENT
??_C@_0N@JJDEOCMA@Lightmap?4bmp?$AA@ DB 'Lightmap.bmp', 00H ; `string'
CONST	ENDS
;	COMDAT ??_C@_0M@JFJFHKFL@Texture?4bmp?$AA@
CONST	SEGMENT
??_C@_0M@JFJFHKFL@Texture?4bmp?$AA@ DB 'Texture.bmp', 00H ; `string'
CONST	ENDS
;	COMDAT ??_C@_01KDCPPGHE@r?$AA@
CONST	SEGMENT
??_C@_01KDCPPGHE@r?$AA@ DB 'r', 00H			; `string'
CONST	ENDS
;	COMDAT xdata$x
xdata$x	SEGMENT
__unwindtable$?LoadSettings@@YAXPAD@Z DD 0ffffffffH
	DD	FLAT:__unwindfunclet$?LoadSettings@@YAXPAD@Z$0
__ehfuncinfo$?LoadSettings@@YAXPAD@Z DD 019930522H
	DD	01H
	DD	FLAT:__unwindtable$?LoadSettings@@YAXPAD@Z
	DD	2 DUP(00H)
	DD	2 DUP(00H)
	DD	00H
	DD	01H
; Function compile flags: /Odtp /RTCsu /ZI
xdata$x	ENDS
;	COMDAT ?LoadSettings@@YAXPAD@Z
_TEXT	SEGMENT
tv149 = -572						; size = 4
$T33454 = -564						; size = 4
$T33455 = -552						; size = 4
$T33458 = -540						; size = 12
$T33459 = -520						; size = 12
_i$33170 = -308						; size = 4
_number$ = -296						; size = 128
_tempStr$ = -160					; size = 128
_f$ = -24						; size = 4
__$ArrayPad$ = -16					; size = 4
__$EHRec$ = -12						; size = 12
_FileName$ = 8						; size = 4
?LoadSettings@@YAXPAD@Z PROC				; LoadSettings, COMDAT

; 80   : {

	push	ebp
	mov	ebp, esp
	push	-1
	push	__ehhandler$?LoadSettings@@YAXPAD@Z
	mov	eax, DWORD PTR fs:0
	push	eax
	sub	esp, 560				; 00000230H
	push	ebx
	push	esi
	push	edi
	lea	edi, DWORD PTR [ebp-572]
	mov	ecx, 140				; 0000008cH
	mov	eax, -858993460				; ccccccccH
	rep stosd
	mov	eax, DWORD PTR ___security_cookie
	xor	eax, ebp
	mov	DWORD PTR __$ArrayPad$[ebp], eax
	push	eax
	lea	eax, DWORD PTR __$EHRec$[ebp]
	mov	DWORD PTR fs:0, eax

; 81   : 	FILE *f;
; 82   : 
; 83   : 	fopen_s(&f, FileName, "r");

	push	OFFSET ??_C@_01KDCPPGHE@r?$AA@
	mov	eax, DWORD PTR _FileName$[ebp]
	push	eax
	lea	ecx, DWORD PTR _f$[ebp]
	push	ecx
	call	_fopen_s
	add	esp, 12					; 0000000cH

; 84   : 	if (f == NULL)

	cmp	DWORD PTR _f$[ebp], 0
	jne	SHORT $LN4@LoadSettin

; 85   : 		return;

	jmp	$LN5@LoadSettin
$LN4@LoadSettin:

; 86   : 
; 87   : 	char tempStr[128];
; 88   : 	fgets(set.LandscapeFolder, 64, f);

	mov	eax, DWORD PTR _f$[ebp]
	push	eax
	push	64					; 00000040H
	push	OFFSET ?set@@3USettings@@A+64
	call	_fgets
	add	esp, 12					; 0000000cH

; 89   : 	DeleteEnterChars(set.LandscapeFolder);

	push	OFFSET ?set@@3USettings@@A+64
	call	?DeleteEnterChars@@YAXPAD@Z		; DeleteEnterChars
	add	esp, 4

; 90   : 	fgets(set.SkyFolder, 64, f);

	mov	eax, DWORD PTR _f$[ebp]
	push	eax
	push	64					; 00000040H
	push	OFFSET ?set@@3USettings@@A		; set
	call	_fgets
	add	esp, 12					; 0000000cH

; 91   : 	DeleteEnterChars(set.SkyFolder);

	push	OFFSET ?set@@3USettings@@A		; set
	call	?DeleteEnterChars@@YAXPAD@Z		; DeleteEnterChars
	add	esp, 4

; 92   : 
; 93   : 	strcpy(tempStr, set.LandscapeFolder);

	push	OFFSET ?set@@3USettings@@A+64
	lea	eax, DWORD PTR _tempStr$[ebp]
	push	eax
	call	_strcpy
	add	esp, 8

; 94   : 	LoadTexture(&texTerrain, strcat(tempStr, "Texture.bmp"));

	push	0
	push	OFFSET ??_C@_0M@JFJFHKFL@Texture?4bmp?$AA@
	lea	eax, DWORD PTR _tempStr$[ebp]
	push	eax
	call	_strcat
	add	esp, 8
	push	eax
	push	OFFSET _texTerrain
	call	?LoadTexture@@YAXPAVTexture@@PAD1@Z	; LoadTexture
	add	esp, 12					; 0000000cH

; 95   : 
; 96   : 	strcpy(tempStr, set.LandscapeFolder);

	push	OFFSET ?set@@3USettings@@A+64
	lea	eax, DWORD PTR _tempStr$[ebp]
	push	eax
	call	_strcpy
	add	esp, 8

; 97   : 	LoadTexture(&texLightmap, strcat(tempStr, "Lightmap.bmp"));

	push	0
	push	OFFSET ??_C@_0N@JJDEOCMA@Lightmap?4bmp?$AA@
	lea	eax, DWORD PTR _tempStr$[ebp]
	push	eax
	call	_strcat
	add	esp, 8
	push	eax
	push	OFFSET _texLightmap
	call	?LoadTexture@@YAXPAVTexture@@PAD1@Z	; LoadTexture
	add	esp, 12					; 0000000cH

; 98   : 
; 99   : 	char number[128];
; 100  : 	for(int i = 0; i < 6; i++)

	mov	DWORD PTR _i$33170[ebp], 0
	jmp	SHORT $LN3@LoadSettin
$LN2@LoadSettin:
	mov	eax, DWORD PTR _i$33170[ebp]
	add	eax, 1
	mov	DWORD PTR _i$33170[ebp], eax
$LN3@LoadSettin:
	cmp	DWORD PTR _i$33170[ebp], 6
	jge	$LN1@LoadSettin

; 101  : 	{
; 102  : 		strcpy(tempStr, set.SkyFolder);

	push	OFFSET ?set@@3USettings@@A		; set
	lea	eax, DWORD PTR _tempStr$[ebp]
	push	eax
	call	_strcpy
	add	esp, 8

; 103  : 		number[0] = (char)(i+48);

	mov	eax, DWORD PTR _i$33170[ebp]
	add	eax, 48					; 00000030H
	mov	BYTE PTR _number$[ebp], al

; 104  : 		number[1] = '.';

	mov	BYTE PTR _number$[ebp+1], 46		; 0000002eH

; 105  : 		number[2] = 'b';

	mov	BYTE PTR _number$[ebp+2], 98		; 00000062H

; 106  : 		number[3] = 'm';

	mov	BYTE PTR _number$[ebp+3], 109		; 0000006dH

; 107  : 		number[4] = 'p';

	mov	BYTE PTR _number$[ebp+4], 112		; 00000070H

; 108  : 		number[5] = (char)0;

	mov	BYTE PTR _number$[ebp+5], 0

; 109  : 		//strcat(number, ".bmp");
; 110  : 		strcat(tempStr, number);

	lea	eax, DWORD PTR _number$[ebp]
	push	eax
	lea	ecx, DWORD PTR _tempStr$[ebp]
	push	ecx
	call	_strcat
	add	esp, 8

; 111  : 		LoadTexture(&texSkyBox[i], tempStr);

	push	0
	lea	eax, DWORD PTR _tempStr$[ebp]
	push	eax
	mov	ecx, DWORD PTR _i$33170[ebp]
	lea	edx, DWORD PTR _texSkyBox[ecx*4]
	push	edx
	call	?LoadTexture@@YAXPAVTexture@@PAD1@Z	; LoadTexture
	add	esp, 12					; 0000000cH

; 112  : 	}

	jmp	$LN2@LoadSettin
$LN1@LoadSettin:

; 113  : 	
; 114  : 
; 115  : 	pTerrain = new Terrain();

	push	296					; 00000128H
	call	??2@YAPAXI@Z				; operator new
	add	esp, 4
	mov	DWORD PTR $T33455[ebp], eax
	mov	DWORD PTR __$EHRec$[ebp+8], 0
	cmp	DWORD PTR $T33455[ebp], 0
	je	SHORT $LN7@LoadSettin
	mov	ecx, DWORD PTR $T33455[ebp]
	call	??0Terrain@@QAE@XZ			; Terrain::Terrain
	mov	DWORD PTR tv149[ebp], eax
	jmp	SHORT $LN8@LoadSettin
$LN7@LoadSettin:
	mov	DWORD PTR tv149[ebp], 0
$LN8@LoadSettin:
	mov	eax, DWORD PTR tv149[ebp]
	mov	DWORD PTR $T33454[ebp], eax
	mov	DWORD PTR __$EHRec$[ebp+8], -1
	mov	ecx, DWORD PTR $T33454[ebp]
	mov	DWORD PTR _pTerrain, ecx

; 116  : 	strcpy(tempStr, set.LandscapeFolder);

	push	OFFSET ?set@@3USettings@@A+64
	lea	eax, DWORD PTR _tempStr$[ebp]
	push	eax
	call	_strcpy
	add	esp, 8

; 117  : 	pTerrain->SetHeightmapTerrain(strcat(tempStr, "Heightmap.bmp"), Vector(0,0,0), Vector(1000,200,1000), 0.4f);

	push	ecx
	fld	DWORD PTR __real@3ecccccd
	fstp	DWORD PTR [esp]
	push	ecx
	fld	DWORD PTR __real@447a0000
	fstp	DWORD PTR [esp]
	push	ecx
	fld	DWORD PTR __real@43480000
	fstp	DWORD PTR [esp]
	push	ecx
	fld	DWORD PTR __real@447a0000
	fstp	DWORD PTR [esp]
	lea	ecx, DWORD PTR $T33458[ebp]
	call	??0Vector@@QAE@MMM@Z			; Vector::Vector
	push	eax
	push	ecx
	fldz
	fstp	DWORD PTR [esp]
	push	ecx
	fldz
	fstp	DWORD PTR [esp]
	push	ecx
	fldz
	fstp	DWORD PTR [esp]
	lea	ecx, DWORD PTR $T33459[ebp]
	call	??0Vector@@QAE@MMM@Z			; Vector::Vector
	push	eax
	push	OFFSET ??_C@_0O@BPAHFFP@Heightmap?4bmp?$AA@
	lea	eax, DWORD PTR _tempStr$[ebp]
	push	eax
	call	_strcat
	add	esp, 8
	push	eax
	mov	ecx, DWORD PTR _pTerrain
	call	?SetHeightmapTerrain@Terrain@@QAEXPADAAVVector@@1M@Z ; Terrain::SetHeightmapTerrain

; 118  : 	
; 119  : 	LoadTexture(&texDetail, "data/detail.bmp");

	push	0
	push	OFFSET ??_C@_0BA@MIMJMBKA@data?1detail?4bmp?$AA@
	push	OFFSET _texDetail
	call	?LoadTexture@@YAXPAVTexture@@PAD1@Z	; LoadTexture
	add	esp, 12					; 0000000cH

; 120  : 	pTerrain->SetTextures(&texTerrain, &texDetail, &texLightmap, texSkyBox);			

	push	OFFSET _texSkyBox
	push	OFFSET _texLightmap
	push	OFFSET _texDetail
	push	OFFSET _texTerrain
	mov	ecx, DWORD PTR _pTerrain
	call	?SetTextures@Terrain@@QAEXPAVTexture@@000@Z ; Terrain::SetTextures
$LN5@LoadSettin:

; 121  : }

	push	edx
	mov	ecx, ebp
	push	eax
	lea	edx, DWORD PTR $LN15@LoadSettin
	call	@_RTC_CheckStackVars@8
	pop	eax
	pop	edx
	mov	ecx, DWORD PTR __$EHRec$[ebp]
	mov	DWORD PTR fs:0, ecx
	pop	ecx
	pop	edi
	pop	esi
	pop	ebx
	mov	ecx, DWORD PTR __$ArrayPad$[ebp]
	xor	ecx, ebp
	call	@__security_check_cookie@4
	add	esp, 572				; 0000023cH
	cmp	ebp, esp
	call	__RTC_CheckEsp
	mov	esp, ebp
	pop	ebp
	ret	0
	npad	2
$LN15@LoadSettin:
	DD	3
	DD	$LN14@LoadSettin
$LN14@LoadSettin:
	DD	-24					; ffffffe8H
	DD	4
	DD	$LN10@LoadSettin
	DD	-160					; ffffff60H
	DD	128					; 00000080H
	DD	$LN11@LoadSettin
	DD	-296					; fffffed8H
	DD	128					; 00000080H
	DD	$LN12@LoadSettin
$LN12@LoadSettin:
	DB	110					; 0000006eH
	DB	117					; 00000075H
	DB	109					; 0000006dH
	DB	98					; 00000062H
	DB	101					; 00000065H
	DB	114					; 00000072H
	DB	0
$LN11@LoadSettin:
	DB	116					; 00000074H
	DB	101					; 00000065H
	DB	109					; 0000006dH
	DB	112					; 00000070H
	DB	83					; 00000053H
	DB	116					; 00000074H
	DB	114					; 00000072H
	DB	0
$LN10@LoadSettin:
	DB	102					; 00000066H
	DB	0
_TEXT	ENDS
;	COMDAT text$x
text$x	SEGMENT
__unwindfunclet$?LoadSettings@@YAXPAD@Z$0:
	mov	eax, DWORD PTR $T33455[ebp]
	push	eax
	call	??3@YAXPAX@Z				; operator delete
	pop	ecx
	ret	0
__ehhandler$?LoadSettings@@YAXPAD@Z:
	mov	edx, DWORD PTR [esp+8]
	lea	eax, DWORD PTR [edx+12]
	mov	ecx, DWORD PTR [edx-576]
	xor	ecx, eax
	call	@__security_check_cookie@4
	mov	ecx, DWORD PTR [edx-4]
	xor	ecx, eax
	call	@__security_check_cookie@4
	mov	eax, OFFSET __ehfuncinfo$?LoadSettings@@YAXPAD@Z
	jmp	___CxxFrameHandler3
text$x	ENDS
?LoadSettings@@YAXPAD@Z ENDP				; LoadSettings
EXTRN	?Set@Vector@@QAEXMMM@Z:PROC			; Vector::Set
; Function compile flags: /Odtp /RTCsu /ZI
; File c:\users\user\desktop\computergraphicsproject\viewer\vector.h
;	COMDAT ??0Vector@@QAE@MMM@Z
_TEXT	SEGMENT
_this$ = -8						; size = 4
__x$ = 8						; size = 4
__y$ = 12						; size = 4
__z$ = 16						; size = 4
??0Vector@@QAE@MMM@Z PROC				; Vector::Vector, COMDAT
; _this$ = ecx

; 21   : 	Vector(float _x, float _y, float _z)	{ Set(_x, _y, _z); }

	push	ebp
	mov	ebp, esp
	sub	esp, 204				; 000000ccH
	push	ebx
	push	esi
	push	edi
	push	ecx
	lea	edi, DWORD PTR [ebp-204]
	mov	ecx, 51					; 00000033H
	mov	eax, -858993460				; ccccccccH
	rep stosd
	pop	ecx
	mov	DWORD PTR _this$[ebp], ecx
	push	ecx
	fld	DWORD PTR __z$[ebp]
	fstp	DWORD PTR [esp]
	push	ecx
	fld	DWORD PTR __y$[ebp]
	fstp	DWORD PTR [esp]
	push	ecx
	fld	DWORD PTR __x$[ebp]
	fstp	DWORD PTR [esp]
	mov	ecx, DWORD PTR _this$[ebp]
	call	?Set@Vector@@QAEXMMM@Z			; Vector::Set
	mov	eax, DWORD PTR _this$[ebp]
	pop	edi
	pop	esi
	pop	ebx
	add	esp, 204				; 000000ccH
	cmp	ebp, esp
	call	__RTC_CheckEsp
	mov	esp, ebp
	pop	ebp
	ret	12					; 0000000cH
??0Vector@@QAE@MMM@Z ENDP				; Vector::Vector
_TEXT	ENDS
PUBLIC	?appPreInit@@YA_NXZ				; appPreInit
; Function compile flags: /Odtp /RTCsu /ZI
; File c:\users\user\desktop\computergraphicsproject\viewer\main.cpp
;	COMDAT ?appPreInit@@YA_NXZ
_TEXT	SEGMENT
?appPreInit@@YA_NXZ PROC				; appPreInit, COMDAT

; 125  : {

	push	ebp
	mov	ebp, esp
	sub	esp, 192				; 000000c0H
	push	ebx
	push	esi
	push	edi
	lea	edi, DWORD PTR [ebp-192]
	mov	ecx, 48					; 00000030H
	mov	eax, -858993460				; ccccccccH
	rep stosd

; 126  : 	return true;

	mov	al, 1

; 127  : }

	pop	edi
	pop	esi
	pop	ebx
	mov	esp, ebp
	pop	ebp
	ret	0
?appPreInit@@YA_NXZ ENDP				; appPreInit
_TEXT	ENDS
PUBLIC	__real@43200000
PUBLIC	__real@43fa0000
PUBLIC	??_C@_0BD@KLICJFBM@ViewerSettings?4ini?$AA@	; `string'
PUBLIC	__real@3f800000
PUBLIC	__real@46240400
PUBLIC	?appInitGL@@YA_NXZ				; appInitGL
EXTRN	?BuildFont@@YAXXZ:PROC				; BuildFont
EXTRN	??0DynamicCamera@@QAE@AAVVector@@PAVTerrain@@@Z:PROC ; DynamicCamera::DynamicCamera
EXTRN	?SetWaterHeight@Terrain@@QAEXM@Z:PROC		; Terrain::SetWaterHeight
EXTRN	__imp__glHint@8:PROC
EXTRN	__imp__glFogf@8:PROC
EXTRN	__imp__glFogfv@8:PROC
EXTRN	__imp__glFogi@8:PROC
EXTRN	__imp__glTexParameterf@12:PROC
EXTRN	__imp__glCullFace@4:PROC
EXTRN	__imp__glDepthFunc@4:PROC
EXTRN	__imp__glEnable@4:PROC
_BSS	SEGMENT
_DynCam	DD	01H DUP (?)
_BSS	ENDS
;	COMDAT __real@43200000
CONST	SEGMENT
__real@43200000 DD 043200000r			; 160
CONST	ENDS
;	COMDAT __real@43fa0000
CONST	SEGMENT
__real@43fa0000 DD 043fa0000r			; 500
CONST	ENDS
;	COMDAT ??_C@_0BD@KLICJFBM@ViewerSettings?4ini?$AA@
CONST	SEGMENT
??_C@_0BD@KLICJFBM@ViewerSettings?4ini?$AA@ DB 'ViewerSettings.ini', 00H ; `string'
CONST	ENDS
;	COMDAT __real@3f800000
CONST	SEGMENT
__real@3f800000 DD 03f800000r			; 1
CONST	ENDS
;	COMDAT __real@46240400
CONST	SEGMENT
__real@46240400 DD 046240400r			; 10497
CONST	ENDS
;	COMDAT xdata$x
xdata$x	SEGMENT
__unwindtable$?appInitGL@@YA_NXZ DD 0ffffffffH
	DD	FLAT:__unwindfunclet$?appInitGL@@YA_NXZ$0
__ehfuncinfo$?appInitGL@@YA_NXZ DD 019930522H
	DD	01H
	DD	FLAT:__unwindtable$?appInitGL@@YA_NXZ
	DD	2 DUP(00H)
	DD	2 DUP(00H)
	DD	00H
	DD	01H
; Function compile flags: /Odtp /RTCsu /ZI
xdata$x	ENDS
;	COMDAT ?appInitGL@@YA_NXZ
_TEXT	SEGMENT
tv137 = -252						; size = 4
$T33487 = -244						; size = 4
$T33488 = -232						; size = 4
$T33489 = -220						; size = 12
__$EHRec$ = -12						; size = 12
?appInitGL@@YA_NXZ PROC					; appInitGL, COMDAT

; 131  : {

	push	ebp
	mov	ebp, esp
	push	-1
	push	__ehhandler$?appInitGL@@YA_NXZ
	mov	eax, DWORD PTR fs:0
	push	eax
	sub	esp, 240				; 000000f0H
	push	ebx
	push	esi
	push	edi
	lea	edi, DWORD PTR [ebp-252]
	mov	ecx, 60					; 0000003cH
	mov	eax, -858993460				; ccccccccH
	rep stosd
	mov	eax, DWORD PTR ___security_cookie
	xor	eax, ebp
	push	eax
	lea	eax, DWORD PTR __$EHRec$[ebp]
	mov	DWORD PTR fs:0, eax

; 132  : 	// zbuffering
; 133  : 	glEnable(GL_DEPTH_TEST);

	mov	esi, esp
	push	2929					; 00000b71H
	call	DWORD PTR __imp__glEnable@4
	cmp	esi, esp
	call	__RTC_CheckEsp

; 134  : 	glDepthFunc(GL_LEQUAL);

	mov	esi, esp
	push	515					; 00000203H
	call	DWORD PTR __imp__glDepthFunc@4
	cmp	esi, esp
	call	__RTC_CheckEsp

; 135  : 
; 136  : 	// culling
; 137  : 	glEnable(GL_CULL_FACE);

	mov	esi, esp
	push	2884					; 00000b44H
	call	DWORD PTR __imp__glEnable@4
	cmp	esi, esp
	call	__RTC_CheckEsp

; 138  : 	glCullFace(GL_FRONT);

	mov	esi, esp
	push	1028					; 00000404H
	call	DWORD PTR __imp__glCullFace@4
	cmp	esi, esp
	call	__RTC_CheckEsp

; 139  : 
; 140  : 	// We want to use textures, so enable them.
; 141  : 	glEnable( GL_TEXTURE_2D );

	mov	esi, esp
	push	3553					; 00000de1H
	call	DWORD PTR __imp__glEnable@4
	cmp	esi, esp
	call	__RTC_CheckEsp

; 142  : 	glTexParameterf(GL_TEXTURE_2D, GL_TEXTURE_WRAP_S, GL_REPEAT);

	mov	esi, esp
	push	ecx
	fld	DWORD PTR __real@46240400
	fstp	DWORD PTR [esp]
	push	10242					; 00002802H
	push	3553					; 00000de1H
	call	DWORD PTR __imp__glTexParameterf@12
	cmp	esi, esp
	call	__RTC_CheckEsp

; 143  : 	glTexParameterf(GL_TEXTURE_2D, GL_TEXTURE_WRAP_T, GL_REPEAT);

	mov	esi, esp
	push	ecx
	fld	DWORD PTR __real@46240400
	fstp	DWORD PTR [esp]
	push	10243					; 00002803H
	push	3553					; 00000de1H
	call	DWORD PTR __imp__glTexParameterf@12
	cmp	esi, esp
	call	__RTC_CheckEsp

; 144  : 
; 145  : 	glEnable(GL_FOG);                // активизируем туман

	mov	esi, esp
	push	2912					; 00000b60H
	call	DWORD PTR __imp__glEnable@4
	cmp	esi, esp
	call	__RTC_CheckEsp

; 146  : 	glFogi(GL_FOG_MODE, GL_LINEAR);  // затенение линейно

	mov	esi, esp
	push	9729					; 00002601H
	push	2917					; 00000b65H
	call	DWORD PTR __imp__glFogi@8
	cmp	esi, esp
	call	__RTC_CheckEsp

; 147  : 	glFogfv(GL_FOG_COLOR, fogColor); // устанавливаем цвет тумана

	mov	esi, esp
	push	OFFSET ?fogColor@@3PAMA			; fogColor
	push	2918					; 00000b66H
	call	DWORD PTR __imp__glFogfv@8
	cmp	esi, esp
	call	__RTC_CheckEsp

; 148  : 	glFogf(GL_FOG_START,  0.0f);     // устанавливаем начальную плотность тумана

	mov	esi, esp
	push	ecx
	fldz
	fstp	DWORD PTR [esp]
	push	2915					; 00000b63H
	call	DWORD PTR __imp__glFogf@8
	cmp	esi, esp
	call	__RTC_CheckEsp

; 149  : 	glFogf(GL_FOG_END,    1.0f);     // устанавливаем конечную плотность тумана

	mov	esi, esp
	push	ecx
	fld1
	fstp	DWORD PTR [esp]
	push	2916					; 00000b64H
	call	DWORD PTR __imp__glFogf@8
	cmp	esi, esp
	call	__RTC_CheckEsp

; 150  : 	glHint(GL_FOG_HINT, GL_NICEST);  // вычисл€ем туман по пиксел€м

	mov	esi, esp
	push	4354					; 00001102H
	push	3156					; 00000c54H
	call	DWORD PTR __imp__glHint@8
	cmp	esi, esp
	call	__RTC_CheckEsp

; 151  : 	glFogi(GL_FOG_COORDINATE_SOURCE_EXT, GL_FOG_COORDINATE_EXT);

	mov	esi, esp
	push	33873					; 00008451H
	push	33872					; 00008450H
	call	DWORD PTR __imp__glFogi@8
	cmp	esi, esp
	call	__RTC_CheckEsp

; 152  : 
; 153  : 	/*glEnable(GL_FOG);                       // ¬ключает туман (GL_FOG)
; 154  : 	glFogi(GL_FOG_MODE, fogMode[fogfilter]);// ¬ыбираем тип тумана
; 155  : 	glFogfv(GL_FOG_COLOR, fogColor);        // ”станавливаем цвет тумана
; 156  : 	glFogf(GL_FOG_DENSITY, 0.1f);          // Ќасколько густым будет туман
; 157  : 	glHint(GL_FOG_HINT, GL_DONT_CARE);      // ¬спомогательна€ установка тумана
; 158  : 	glFogf(GL_FOG_START, 500.0f);             // √лубина, с которой начинаетс€ туман
; 159  : 	glFogf(GL_FOG_END, 700.0f);               // √лубина, где туман заканчиваетс€.*/
; 160  : 
; 161  : 	
; 162  : 	LoadSettings("ViewerSettings.ini");

	push	OFFSET ??_C@_0BD@KLICJFBM@ViewerSettings?4ini?$AA@
	call	?LoadSettings@@YAXPAD@Z			; LoadSettings
	add	esp, 4

; 163  : 
; 164  : 	pTerrain->SetWaterHeight(waterHeight);				

	push	ecx
	fld	DWORD PTR _waterHeight
	fstp	DWORD PTR [esp]
	mov	ecx, DWORD PTR _pTerrain
	call	?SetWaterHeight@Terrain@@QAEXM@Z	; Terrain::SetWaterHeight

; 165  : 
; 166  : 	DynCam = new DynamicCamera( Vector(500,160,500), pTerrain);

	push	104					; 00000068H
	call	??2@YAPAXI@Z				; operator new
	add	esp, 4
	mov	DWORD PTR $T33488[ebp], eax
	mov	DWORD PTR __$EHRec$[ebp+8], 0
	cmp	DWORD PTR $T33488[ebp], 0
	je	SHORT $LN3@appInitGL
	mov	eax, DWORD PTR _pTerrain
	push	eax
	push	ecx
	fld	DWORD PTR __real@43fa0000
	fstp	DWORD PTR [esp]
	push	ecx
	fld	DWORD PTR __real@43200000
	fstp	DWORD PTR [esp]
	push	ecx
	fld	DWORD PTR __real@43fa0000
	fstp	DWORD PTR [esp]
	lea	ecx, DWORD PTR $T33489[ebp]
	call	??0Vector@@QAE@MMM@Z			; Vector::Vector
	push	eax
	mov	ecx, DWORD PTR $T33488[ebp]
	call	??0DynamicCamera@@QAE@AAVVector@@PAVTerrain@@@Z ; DynamicCamera::DynamicCamera
	mov	DWORD PTR tv137[ebp], eax
	jmp	SHORT $LN4@appInitGL
$LN3@appInitGL:
	mov	DWORD PTR tv137[ebp], 0
$LN4@appInitGL:
	mov	ecx, DWORD PTR tv137[ebp]
	mov	DWORD PTR $T33487[ebp], ecx
	mov	DWORD PTR __$EHRec$[ebp+8], -1
	mov	edx, DWORD PTR $T33487[ebp]
	mov	DWORD PTR _DynCam, edx

; 167  : 
; 168  : 	BuildFont();

	call	?BuildFont@@YAXXZ			; BuildFont

; 169  : 
; 170  : 	return true;

	mov	al, 1

; 171  : }

	mov	ecx, DWORD PTR __$EHRec$[ebp]
	mov	DWORD PTR fs:0, ecx
	pop	ecx
	pop	edi
	pop	esi
	pop	ebx
	add	esp, 252				; 000000fcH
	cmp	ebp, esp
	call	__RTC_CheckEsp
	mov	esp, ebp
	pop	ebp
	ret	0
_TEXT	ENDS
;	COMDAT text$x
text$x	SEGMENT
__unwindfunclet$?appInitGL@@YA_NXZ$0:
	mov	eax, DWORD PTR $T33488[ebp]
	push	eax
	call	??3@YAXPAX@Z				; operator delete
	pop	ecx
	ret	0
__ehhandler$?appInitGL@@YA_NXZ:
	mov	edx, DWORD PTR [esp+8]
	lea	eax, DWORD PTR [edx+12]
	mov	ecx, DWORD PTR [edx-256]
	xor	ecx, eax
	call	@__security_check_cookie@4
	mov	eax, OFFSET __ehfuncinfo$?appInitGL@@YA_NXZ
	jmp	___CxxFrameHandler3
text$x	ENDS
?appInitGL@@YA_NXZ ENDP					; appInitGL
PUBLIC	__real@3d99999a
PUBLIC	??_C@_0DN@HGAJOOO@?5?5?5?5?5?8z?8?5?9?5texture?0?5?8x?8?5?9?5lightm@ ; `string'
PUBLIC	__real@3d4ccccd
PUBLIC	??_C@_0CP@FIELPGLI@?5?5?5?5?5?8?$FL?8?5?8?$FN?8?5to?5decrease?1increas@ ; `string'
PUBLIC	__real@3ca3d70a
PUBLIC	__real@3ccccccd
PUBLIC	??_C@_0EJ@GPNMDHLH@Press?5W?0?5A?0?5S?0?5D?5to?5move?5camera?$DL@ ; `string'
PUBLIC	__real@3f3c0000
PUBLIC	__real@3f5a0000
PUBLIC	__real@3f560000
PUBLIC	__real@3f19999a
PUBLIC	??$sprintf_s@$0EAA@@@YAHAAY0EAA@DPBDZZ		; sprintf_s<1024>
PUBLIC	??_C@_0BK@IFNNPJIA@LandViewer?4?4?4?0?5at?5?$CF?41ffps?$AA@ ; `string'
PUBLIC	__real@3ff0000000000000
PUBLIC	__real@408f400000000000
PUBLIC	?appRender@@YA_NXZ				; appRender
EXTRN	?Print2D@@YAXMMIPBDZZ:PROC			; Print2D
EXTRN	__imp__glDisable@4:PROC
EXTRN	__imp__glRectf@16:PROC
EXTRN	__imp__glColor4f@16:PROC
EXTRN	__imp__glBlendFunc@8:PROC
EXTRN	?GetWaterHeight@Terrain@@QAEMXZ:PROC		; Terrain::GetWaterHeight
EXTRN	?Render@Terrain@@QAEXXZ:PROC			; Terrain::Render
EXTRN	?SwitchRenderMode@@YAXW4RENDER_MODE@@@Z:PROC	; SwitchRenderMode
EXTRN	__imp__glClear@4:PROC
EXTRN	?Update@DynamicCamera@@QAEXXZ:PROC		; DynamicCamera::Update
EXTRN	?sys_Time@@3KA:DWORD				; sys_Time
_BSS	SEGMENT
?lastSecTime@?1??appRender@@YA_NXZ@4MA DD 01H DUP (?)	; `appRender'::`2'::lastSecTime
?$S1@?1??appRender@@YA_NXZ@4IA DD 01H DUP (?)		; `appRender'::`2'::$S1
_BSS	ENDS
;	COMDAT __real@3d99999a
CONST	SEGMENT
__real@3d99999a DD 03d99999ar			; 0.075
CONST	ENDS
;	COMDAT ??_C@_0DN@HGAJOOO@?5?5?5?5?5?8z?8?5?9?5texture?0?5?8x?8?5?9?5lightm@
CONST	SEGMENT
??_C@_0DN@HGAJOOO@?5?5?5?5?5?8z?8?5?9?5texture?0?5?8x?8?5?9?5lightm@ DB ' '
	DB	'    ''z'' - texture, ''x'' - lightmap, ''c'' - detail, ''v'' '
	DB	'- snap', 00H				; `string'
CONST	ENDS
;	COMDAT __real@3d4ccccd
CONST	SEGMENT
__real@3d4ccccd DD 03d4ccccdr			; 0.05
CONST	ENDS
;	COMDAT ??_C@_0CP@FIELPGLI@?5?5?5?5?5?8?$FL?8?5?8?$FN?8?5to?5decrease?1increas@
CONST	SEGMENT
??_C@_0CP@FIELPGLI@?5?5?5?5?5?8?$FL?8?5?8?$FN?8?5to?5decrease?1increas@ DB ' '
	DB	'    ''['' '']'' to decrease/increase water height', 00H ; `string'
CONST	ENDS
;	COMDAT __real@3ca3d70a
CONST	SEGMENT
__real@3ca3d70a DD 03ca3d70ar			; 0.02
CONST	ENDS
;	COMDAT __real@3ccccccd
CONST	SEGMENT
__real@3ccccccd DD 03ccccccdr			; 0.025
CONST	ENDS
;	COMDAT ??_C@_0EJ@GPNMDHLH@Press?5W?0?5A?0?5S?0?5D?5to?5move?5camera?$DL@
CONST	SEGMENT
??_C@_0EJ@GPNMDHLH@Press?5W?0?5A?0?5S?0?5D?5to?5move?5camera?$DL@ DB 'Pre'
	DB	'ss W, A, S, D to move camera; Q, E to decrease/increase camer'
	DB	'a height', 00H				; `string'
CONST	ENDS
;	COMDAT __real@3f3c0000
CONST	SEGMENT
__real@3f3c0000 DD 03f3c0000r			; 0.734375
CONST	ENDS
;	COMDAT __real@3f5a0000
CONST	SEGMENT
__real@3f5a0000 DD 03f5a0000r			; 0.851563
CONST	ENDS
;	COMDAT __real@3f560000
CONST	SEGMENT
__real@3f560000 DD 03f560000r			; 0.835938
CONST	ENDS
;	COMDAT __real@3f19999a
CONST	SEGMENT
__real@3f19999a DD 03f19999ar			; 0.6
CONST	ENDS
;	COMDAT ??_C@_0BK@IFNNPJIA@LandViewer?4?4?4?0?5at?5?$CF?41ffps?$AA@
CONST	SEGMENT
??_C@_0BK@IFNNPJIA@LandViewer?4?4?4?0?5at?5?$CF?41ffps?$AA@ DB 'LandViewe'
	DB	'r..., at %.1ffps', 00H			; `string'
CONST	ENDS
;	COMDAT __real@3ff0000000000000
CONST	SEGMENT
__real@3ff0000000000000 DQ 03ff0000000000000r	; 1
CONST	ENDS
;	COMDAT __real@408f400000000000
CONST	SEGMENT
__real@408f400000000000 DQ 0408f400000000000r	; 1000
; Function compile flags: /Odtp /RTCsu /ZI
CONST	ENDS
;	COMDAT ?appRender@@YA_NXZ
_TEXT	SEGMENT
tv175 = -236						; size = 8
tv160 = -236						; size = 8
_Height$ = -32						; size = 4
_FontColor$ = -20					; size = 4
_fTime$ = -8						; size = 4
?appRender@@YA_NXZ PROC					; appRender, COMDAT

; 176  : {

	push	ebp
	mov	ebp, esp
	sub	esp, 236				; 000000ecH
	push	ebx
	push	esi
	push	edi
	lea	edi, DWORD PTR [ebp-236]
	mov	ecx, 59					; 0000003bH
	mov	eax, -858993460				; ccccccccH
	rep stosd

; 177  : 	// We like to use floating point seconds, just for kicks.
; 178  : 	static float	lastTime = 0.0f;
; 179  : 	float			fTime = sys_Time/1000.f;

	mov	eax, DWORD PTR ?sys_Time@@3KA		; sys_Time
	mov	DWORD PTR tv160[ebp], eax
	mov	DWORD PTR tv160[ebp+4], 0
	fild	QWORD PTR tv160[ebp]
	fdiv	QWORD PTR __real@408f400000000000
	fstp	DWORD PTR _fTime$[ebp]

; 180  : 	static float	lastSecTime = fTime;

	mov	eax, DWORD PTR ?$S1@?1??appRender@@YA_NXZ@4IA
	and	eax, 1
	jne	SHORT $LN3@appRender
	mov	eax, DWORD PTR ?$S1@?1??appRender@@YA_NXZ@4IA
	or	eax, 1
	mov	DWORD PTR ?$S1@?1??appRender@@YA_NXZ@4IA, eax
	fld	DWORD PTR _fTime$[ebp]
	fstp	DWORD PTR ?lastSecTime@?1??appRender@@YA_NXZ@4MA
$LN3@appRender:

; 181  : 	static dword	frameCounter = 0;
; 182  : 
; 183  : 	frameCounter++;

	mov	eax, DWORD PTR ?frameCounter@?1??appRender@@YA_NXZ@4KA
	add	eax, 1
	mov	DWORD PTR ?frameCounter@?1??appRender@@YA_NXZ@4KA, eax

; 184  : 	g_frameTime = fTime-lastTime;

	fld	DWORD PTR _fTime$[ebp]
	fsub	DWORD PTR ?lastTime@?1??appRender@@YA_NXZ@4MA
	fstp	DWORD PTR ?g_frameTime@@3MA		; g_frameTime

; 185  : 	lastTime = fTime;

	fld	DWORD PTR _fTime$[ebp]
	fstp	DWORD PTR ?lastTime@?1??appRender@@YA_NXZ@4MA

; 186  : 
; 187  : 	if (fTime-lastSecTime > 1.f)

	fld	DWORD PTR _fTime$[ebp]
	fsub	DWORD PTR ?lastSecTime@?1??appRender@@YA_NXZ@4MA
	fcomp	QWORD PTR __real@3ff0000000000000
	fnstsw	ax
	test	ah, 65					; 00000041H
	jne	SHORT $LN2@appRender

; 188  : 	{
; 189  : 		sprintf_s(titleBar, "LandViewer..., at %.1ffps", (float)frameCounter/(fTime-lastSecTime));

	mov	eax, DWORD PTR ?frameCounter@?1??appRender@@YA_NXZ@4KA
	mov	DWORD PTR tv175[ebp], eax
	mov	DWORD PTR tv175[ebp+4], 0
	fild	QWORD PTR tv175[ebp]
	fld	DWORD PTR _fTime$[ebp]
	fsub	DWORD PTR ?lastSecTime@?1??appRender@@YA_NXZ@4MA
	fdivp	ST(1), ST(0)
	sub	esp, 8
	fstp	QWORD PTR [esp]
	push	OFFSET ??_C@_0BK@IFNNPJIA@LandViewer?4?4?4?0?5at?5?$CF?41ffps?$AA@
	push	OFFSET _titleBar
	call	??$sprintf_s@$0EAA@@@YAHAAY0EAA@DPBDZZ	; sprintf_s<1024>
	add	esp, 16					; 00000010H

; 190  : 		frameCounter = 0;

	mov	DWORD PTR ?frameCounter@?1??appRender@@YA_NXZ@4KA, 0

; 191  : 		lastSecTime = fTime;

	fld	DWORD PTR _fTime$[ebp]
	fstp	DWORD PTR ?lastSecTime@?1??appRender@@YA_NXZ@4MA
$LN2@appRender:

; 192  : 	}
; 193  : 	
; 194  : 	DynCam->Update();

	mov	ecx, DWORD PTR _DynCam
	call	?Update@DynamicCamera@@QAEXXZ		; DynamicCamera::Update

; 195  : 
; 196  : 	glClear( GL_COLOR_BUFFER_BIT | GL_DEPTH_BUFFER_BIT );

	mov	esi, esp
	push	16640					; 00004100H
	call	DWORD PTR __imp__glClear@4
	cmp	esi, esp
	call	__RTC_CheckEsp

; 197  : 	glClear( GL_DEPTH_BUFFER_BIT );

	mov	esi, esp
	push	256					; 00000100H
	call	DWORD PTR __imp__glClear@4
	cmp	esi, esp
	call	__RTC_CheckEsp

; 198  : 
; 199  : 	SwitchRenderMode(RENDERMODE_3D);

	push	1
	call	?SwitchRenderMode@@YAXW4RENDER_MODE@@@Z	; SwitchRenderMode
	add	esp, 4

; 200  : 	pTerrain->Render();

	mov	ecx, DWORD PTR _pTerrain
	call	?Render@Terrain@@QAEXXZ			; Terrain::Render

; 201  : 
; 202  : 
; 203  : 	SwitchRenderMode(RENDERMODE_2D);

	push	2
	call	?SwitchRenderMode@@YAXW4RENDER_MODE@@@Z	; SwitchRenderMode
	add	esp, 4

; 204  : 	if (DynCam->camSrc.y < pTerrain->GetWaterHeight())

	mov	ecx, DWORD PTR _pTerrain
	call	?GetWaterHeight@Terrain@@QAEMXZ		; Terrain::GetWaterHeight
	mov	eax, DWORD PTR _DynCam
	fld	DWORD PTR [eax+4]
	fcompp
	fnstsw	ax
	test	ah, 5
	jp	$LN1@appRender

; 205  : 	{
; 206  : 		glEnable(GL_BLEND);

	mov	esi, esp
	push	3042					; 00000be2H
	call	DWORD PTR __imp__glEnable@4
	cmp	esi, esp
	call	__RTC_CheckEsp

; 207  : 		glBlendFunc(GL_SRC_ALPHA, GL_ONE_MINUS_SRC_ALPHA);

	mov	esi, esp
	push	771					; 00000303H
	push	770					; 00000302H
	call	DWORD PTR __imp__glBlendFunc@8
	cmp	esi, esp
	call	__RTC_CheckEsp

; 208  : 		glColor4f(0.734375, 0.8515625, 0.8359375, 0.6f);

	mov	esi, esp
	push	ecx
	fld	DWORD PTR __real@3f19999a
	fstp	DWORD PTR [esp]
	push	ecx
	fld	DWORD PTR __real@3f560000
	fstp	DWORD PTR [esp]
	push	ecx
	fld	DWORD PTR __real@3f5a0000
	fstp	DWORD PTR [esp]
	push	ecx
	fld	DWORD PTR __real@3f3c0000
	fstp	DWORD PTR [esp]
	call	DWORD PTR __imp__glColor4f@16
	cmp	esi, esp
	call	__RTC_CheckEsp

; 209  : 		glRectf(0, 0, 1, 1);

	mov	esi, esp
	push	ecx
	fld1
	fstp	DWORD PTR [esp]
	push	ecx
	fld1
	fstp	DWORD PTR [esp]
	push	ecx
	fldz
	fstp	DWORD PTR [esp]
	push	ecx
	fldz
	fstp	DWORD PTR [esp]
	call	DWORD PTR __imp__glRectf@16
	cmp	esi, esp
	call	__RTC_CheckEsp

; 210  : 		glDisable(GL_BLEND);

	mov	esi, esp
	push	3042					; 00000be2H
	call	DWORD PTR __imp__glDisable@4
	cmp	esi, esp
	call	__RTC_CheckEsp
$LN1@appRender:

; 211  : 	}
; 212  : 	unsigned FontColor = 0xFFFFFFFF;

	mov	DWORD PTR _FontColor$[ebp], -1

; 213  : 	int Height = 800;

	mov	DWORD PTR _Height$[ebp], 800		; 00000320H

; 214  : 	Print2D(0.02f, 0.025f, FontColor, "Press W, A, S, D to move camera; Q, E to decrease/increase camera height");

	push	OFFSET ??_C@_0EJ@GPNMDHLH@Press?5W?0?5A?0?5S?0?5D?5to?5move?5camera?$DL@
	mov	eax, DWORD PTR _FontColor$[ebp]
	push	eax
	push	ecx
	fld	DWORD PTR __real@3ccccccd
	fstp	DWORD PTR [esp]
	push	ecx
	fld	DWORD PTR __real@3ca3d70a
	fstp	DWORD PTR [esp]
	call	?Print2D@@YAXMMIPBDZZ			; Print2D
	add	esp, 16					; 00000010H

; 215  : 	Print2D(0.02f, 0.050f, FontColor, "     '[' ']' to decrease/increase water height");

	push	OFFSET ??_C@_0CP@FIELPGLI@?5?5?5?5?5?8?$FL?8?5?8?$FN?8?5to?5decrease?1increas@
	mov	eax, DWORD PTR _FontColor$[ebp]
	push	eax
	push	ecx
	fld	DWORD PTR __real@3d4ccccd
	fstp	DWORD PTR [esp]
	push	ecx
	fld	DWORD PTR __real@3ca3d70a
	fstp	DWORD PTR [esp]
	call	?Print2D@@YAXMMIPBDZZ			; Print2D
	add	esp, 16					; 00000010H

; 216  : 	Print2D(0.02f, 0.075f, FontColor, "     'z' - texture, 'x' - lightmap, 'c' - detail, 'v' - snap");

	push	OFFSET ??_C@_0DN@HGAJOOO@?5?5?5?5?5?8z?8?5?9?5texture?0?5?8x?8?5?9?5lightm@
	mov	eax, DWORD PTR _FontColor$[ebp]
	push	eax
	push	ecx
	fld	DWORD PTR __real@3d99999a
	fstp	DWORD PTR [esp]
	push	ecx
	fld	DWORD PTR __real@3ca3d70a
	fstp	DWORD PTR [esp]
	call	?Print2D@@YAXMMIPBDZZ			; Print2D
	add	esp, 16					; 00000010H

; 217  : 	//Print2D(0.02, 0.075, FontColor, "     'z' - wireframe, 'x' - details");
; 218  : 
; 219  : 	SwitchRenderMode(RENDERMODE_3D);

	push	1
	call	?SwitchRenderMode@@YAXW4RENDER_MODE@@@Z	; SwitchRenderMode
	add	esp, 4

; 220  : 	
; 221  : 	return true;

	mov	al, 1

; 222  : }

	pop	edi
	pop	esi
	pop	ebx
	add	esp, 236				; 000000ecH
	cmp	ebp, esp
	call	__RTC_CheckEsp
	mov	esp, ebp
	pop	ebp
	ret	0
?appRender@@YA_NXZ ENDP					; appRender
_TEXT	ENDS
PUBLIC	??_GTerrain@@QAEPAXI@Z				; Terrain::`scalar deleting destructor'
PUBLIC	??_GDynamicCamera@@QAEPAXI@Z			; DynamicCamera::`scalar deleting destructor'
PUBLIC	?appShutdown@@YAXXZ				; appShutdown
EXTRN	?Free@Texture@@QAEXXZ:PROC			; Texture::Free
EXTRN	?KillFont@@YAXXZ:PROC				; KillFont
; Function compile flags: /Odtp /RTCsu /ZI
;	COMDAT ?appShutdown@@YAXXZ
_TEXT	SEGMENT
tv73 = -256						; size = 4
tv68 = -256						; size = 4
$T33531 = -248						; size = 4
$T33532 = -236						; size = 4
$T33535 = -224						; size = 4
$T33536 = -212						; size = 4
_i$ = -8						; size = 4
?appShutdown@@YAXXZ PROC				; appShutdown, COMDAT

; 227  : {

	push	ebp
	mov	ebp, esp
	sub	esp, 256				; 00000100H
	push	ebx
	push	esi
	push	edi
	lea	edi, DWORD PTR [ebp-256]
	mov	ecx, 64					; 00000040H
	mov	eax, -858993460				; ccccccccH
	rep stosd

; 228  : 	delete DynCam;

	mov	eax, DWORD PTR _DynCam
	mov	DWORD PTR $T33532[ebp], eax
	mov	ecx, DWORD PTR $T33532[ebp]
	mov	DWORD PTR $T33531[ebp], ecx
	cmp	DWORD PTR $T33531[ebp], 0
	je	SHORT $LN9@appShutdow
	push	1
	mov	ecx, DWORD PTR $T33531[ebp]
	call	??_GDynamicCamera@@QAEPAXI@Z
	mov	DWORD PTR tv68[ebp], eax
	jmp	SHORT $LN10@appShutdow
$LN9@appShutdow:
	mov	DWORD PTR tv68[ebp], 0
$LN10@appShutdow:

; 229  : 
; 230  : 	delete pTerrain;

	mov	eax, DWORD PTR _pTerrain
	mov	DWORD PTR $T33536[ebp], eax
	mov	ecx, DWORD PTR $T33536[ebp]
	mov	DWORD PTR $T33535[ebp], ecx
	cmp	DWORD PTR $T33535[ebp], 0
	je	SHORT $LN11@appShutdow
	push	1
	mov	ecx, DWORD PTR $T33535[ebp]
	call	??_GTerrain@@QAEPAXI@Z
	mov	DWORD PTR tv73[ebp], eax
	jmp	SHORT $LN12@appShutdow
$LN11@appShutdow:
	mov	DWORD PTR tv73[ebp], 0
$LN12@appShutdow:

; 231  : 
; 232  : 	KillFont();

	call	?KillFont@@YAXXZ			; KillFont

; 233  : 
; 234  : 	texTerrain.Free();

	mov	ecx, OFFSET _texTerrain
	call	?Free@Texture@@QAEXXZ			; Texture::Free

; 235  : 	texDetail.Free();

	mov	ecx, OFFSET _texDetail
	call	?Free@Texture@@QAEXXZ			; Texture::Free

; 236  : 
; 237  : 	dword i;
; 238  : 
; 239  : 	for (i=0; i<6; i++)

	mov	DWORD PTR _i$[ebp], 0
	jmp	SHORT $LN6@appShutdow
$LN5@appShutdow:
	mov	eax, DWORD PTR _i$[ebp]
	add	eax, 1
	mov	DWORD PTR _i$[ebp], eax
$LN6@appShutdow:
	cmp	DWORD PTR _i$[ebp], 6
	jae	SHORT $LN4@appShutdow

; 240  : 	{
; 241  : 		texSkyBox[i].Free();

	mov	eax, DWORD PTR _i$[ebp]
	lea	ecx, DWORD PTR _texSkyBox[eax*4]
	call	?Free@Texture@@QAEXXZ			; Texture::Free

; 242  : 	}

	jmp	SHORT $LN5@appShutdow
$LN4@appShutdow:

; 243  : 
; 244  : 	for (i=0; i<N_CAUSTICS_TEX; i++)

	mov	DWORD PTR _i$[ebp], 0
	jmp	SHORT $LN3@appShutdow
$LN2@appShutdow:
	mov	eax, DWORD PTR _i$[ebp]
	add	eax, 1
	mov	DWORD PTR _i$[ebp], eax
$LN3@appShutdow:
	cmp	DWORD PTR _i$[ebp], 32			; 00000020H
	jae	SHORT $LN7@appShutdow
	jmp	SHORT $LN2@appShutdow
$LN7@appShutdow:

; 245  : 	{
; 246  : //		texCaustics[i].Free();
; 247  : 	}
; 248  : 
; 249  : }

	pop	edi
	pop	esi
	pop	ebx
	add	esp, 256				; 00000100H
	cmp	ebp, esp
	call	__RTC_CheckEsp
	mov	esp, ebp
	pop	ebp
	ret	0
?appShutdown@@YAXXZ ENDP				; appShutdown
_TEXT	ENDS
EXTRN	??1DynamicCamera@@QAE@XZ:PROC			; DynamicCamera::~DynamicCamera
; Function compile flags: /Odtp /RTCsu /ZI
;	COMDAT ??_GDynamicCamera@@QAEPAXI@Z
_TEXT	SEGMENT
_this$ = -8						; size = 4
___flags$ = 8						; size = 4
??_GDynamicCamera@@QAEPAXI@Z PROC			; DynamicCamera::`scalar deleting destructor', COMDAT
; _this$ = ecx
	push	ebp
	mov	ebp, esp
	sub	esp, 204				; 000000ccH
	push	ebx
	push	esi
	push	edi
	push	ecx
	lea	edi, DWORD PTR [ebp-204]
	mov	ecx, 51					; 00000033H
	mov	eax, -858993460				; ccccccccH
	rep stosd
	pop	ecx
	mov	DWORD PTR _this$[ebp], ecx
	mov	ecx, DWORD PTR _this$[ebp]
	call	??1DynamicCamera@@QAE@XZ		; DynamicCamera::~DynamicCamera
	mov	eax, DWORD PTR ___flags$[ebp]
	and	eax, 1
	je	SHORT $LN1@scalar
	mov	eax, DWORD PTR _this$[ebp]
	push	eax
	call	??3@YAXPAX@Z				; operator delete
	add	esp, 4
$LN1@scalar:
	mov	eax, DWORD PTR _this$[ebp]
	pop	edi
	pop	esi
	pop	ebx
	add	esp, 204				; 000000ccH
	cmp	ebp, esp
	call	__RTC_CheckEsp
	mov	esp, ebp
	pop	ebp
	ret	4
??_GDynamicCamera@@QAEPAXI@Z ENDP			; DynamicCamera::`scalar deleting destructor'
_TEXT	ENDS
EXTRN	??1Terrain@@QAE@XZ:PROC				; Terrain::~Terrain
; Function compile flags: /Odtp /RTCsu /ZI
;	COMDAT ??_GTerrain@@QAEPAXI@Z
_TEXT	SEGMENT
_this$ = -8						; size = 4
___flags$ = 8						; size = 4
??_GTerrain@@QAEPAXI@Z PROC				; Terrain::`scalar deleting destructor', COMDAT
; _this$ = ecx
	push	ebp
	mov	ebp, esp
	sub	esp, 204				; 000000ccH
	push	ebx
	push	esi
	push	edi
	push	ecx
	lea	edi, DWORD PTR [ebp-204]
	mov	ecx, 51					; 00000033H
	mov	eax, -858993460				; ccccccccH
	rep stosd
	pop	ecx
	mov	DWORD PTR _this$[ebp], ecx
	mov	ecx, DWORD PTR _this$[ebp]
	call	??1Terrain@@QAE@XZ			; Terrain::~Terrain
	mov	eax, DWORD PTR ___flags$[ebp]
	and	eax, 1
	je	SHORT $LN1@scalar@2
	mov	eax, DWORD PTR _this$[ebp]
	push	eax
	call	??3@YAXPAX@Z				; operator delete
	add	esp, 4
$LN1@scalar@2:
	mov	eax, DWORD PTR _this$[ebp]
	pop	edi
	pop	esi
	pop	ebx
	add	esp, 204				; 000000ccH
	cmp	ebp, esp
	call	__RTC_CheckEsp
	mov	esp, ebp
	pop	ebp
	ret	4
??_GTerrain@@QAEPAXI@Z ENDP				; Terrain::`scalar deleting destructor'
_TEXT	ENDS
PUBLIC	__real@4024000000000000
PUBLIC	__real@bf800000
PUBLIC	__real@bff0000000000000
PUBLIC	__real@40000000
PUBLIC	__real@4000000000000000
PUBLIC	__real@3f999999a0000000
PUBLIC	?ProcessKey@@YA_NPAUHWND__@@I@Z			; ProcessKey
EXTRN	?fLightPos@@3PAMA:BYTE				; fLightPos
EXTRN	?kbrd@@3UKeyboard@@A:BYTE			; kbrd
EXTRN	?SetSnap@DynamicCamera@@QAEX_N@Z:PROC		; DynamicCamera::SetSnap
EXTRN	__imp__DestroyWindow@4:PROC
;	COMDAT __real@4024000000000000
CONST	SEGMENT
__real@4024000000000000 DQ 04024000000000000r	; 10
CONST	ENDS
;	COMDAT __real@bf800000
CONST	SEGMENT
__real@bf800000 DD 0bf800000r			; -1
CONST	ENDS
;	COMDAT __real@bff0000000000000
CONST	SEGMENT
__real@bff0000000000000 DQ 0bff0000000000000r	; -1
CONST	ENDS
;	COMDAT __real@40000000
CONST	SEGMENT
__real@40000000 DD 040000000r			; 2
CONST	ENDS
;	COMDAT __real@4000000000000000
CONST	SEGMENT
__real@4000000000000000 DQ 04000000000000000r	; 2
CONST	ENDS
;	COMDAT __real@3f999999a0000000
CONST	SEGMENT
__real@3f999999a0000000 DQ 03f999999a0000000r	; 0.025
; Function compile flags: /Odtp /RTCsu /ZI
CONST	ENDS
;	COMDAT ?ProcessKey@@YA_NPAUHWND__@@I@Z
_TEXT	SEGMENT
_hWnd$ = 8						; size = 4
_wParam$ = 12						; size = 4
?ProcessKey@@YA_NPAUHWND__@@I@Z PROC			; ProcessKey, COMDAT

; 252  : {

	push	ebp
	mov	ebp, esp
	sub	esp, 192				; 000000c0H
	push	ebx
	push	esi
	push	edi
	lea	edi, DWORD PTR [ebp-192]
	mov	ecx, 48					; 00000030H
	mov	eax, -858993460				; ccccccccH
	rep stosd

; 253  : 	if (wParam == VK_ESCAPE) 

	cmp	DWORD PTR _wParam$[ebp], 27		; 0000001bH
	jne	SHORT $LN12@ProcessKey

; 254  : 		DestroyWindow(hWnd);

	mov	esi, esp
	mov	eax, DWORD PTR _hWnd$[ebp]
	push	eax
	call	DWORD PTR __imp__DestroyWindow@4
	cmp	esi, esp
	call	__RTC_CheckEsp
$LN12@ProcessKey:

; 255  : 
; 256  : 	if (wParam == 90)          // 'z'

	cmp	DWORD PTR _wParam$[ebp], 90		; 0000005aH
	jne	SHORT $LN11@ProcessKey

; 257  : 		pTerrain->drawTexture = !pTerrain->drawTexture;

	mov	eax, DWORD PTR _pTerrain
	xor	ecx, ecx
	cmp	DWORD PTR [eax+8], 0
	sete	cl
	mov	edx, DWORD PTR _pTerrain
	mov	DWORD PTR [edx+8], ecx
$LN11@ProcessKey:

; 258  : 	if (wParam == 88)          // 'x'

	cmp	DWORD PTR _wParam$[ebp], 88		; 00000058H
	jne	SHORT $LN10@ProcessKey

; 259  : 		pTerrain->drawLightmap = !pTerrain->drawLightmap;

	mov	eax, DWORD PTR _pTerrain
	xor	ecx, ecx
	cmp	DWORD PTR [eax+4], 0
	sete	cl
	mov	edx, DWORD PTR _pTerrain
	mov	DWORD PTR [edx+4], ecx
$LN10@ProcessKey:

; 260  : 	if (wParam == 67)          // 'c'

	cmp	DWORD PTR _wParam$[ebp], 67		; 00000043H
	jne	SHORT $LN9@ProcessKey

; 261  : 		pTerrain->drawDetail = !pTerrain->drawDetail;

	mov	eax, DWORD PTR _pTerrain
	xor	ecx, ecx
	cmp	DWORD PTR [eax], 0
	sete	cl
	mov	edx, DWORD PTR _pTerrain
	mov	DWORD PTR [edx], ecx
$LN9@ProcessKey:

; 262  : 	if (wParam == 86)          // 'v'

	cmp	DWORD PTR _wParam$[ebp], 86		; 00000056H
	jne	SHORT $LN8@ProcessKey

; 263  : 	{ 
; 264  : 		Snap = !Snap;

	movzx	eax, BYTE PTR _Snap
	neg	eax
	sbb	eax, eax
	add	eax, 1
	mov	BYTE PTR _Snap, al

; 265  : 		DynCam->SetSnap(Snap);

	movzx	eax, BYTE PTR _Snap
	push	eax
	mov	ecx, DWORD PTR _DynCam
	call	?SetSnap@DynamicCamera@@QAEX_N@Z	; DynamicCamera::SetSnap
$LN8@ProcessKey:

; 266  : 	}
; 267  : 
; 268  : 	if (wParam == 49)

	cmp	DWORD PTR _wParam$[ebp], 49		; 00000031H
	jne	SHORT $LN7@ProcessKey

; 269  : 		pTerrain->wireFrame = !pTerrain->wireFrame;

	mov	eax, DWORD PTR _pTerrain
	xor	ecx, ecx
	cmp	DWORD PTR [eax+12], 0
	sete	cl
	mov	edx, DWORD PTR _pTerrain
	mov	DWORD PTR [edx+12], ecx
$LN7@ProcessKey:

; 270  : 	/*if (wParam == 49)
; 271  : 	{
; 272  : 		RandGen = !RandGen;
; 273  : 		if (!RandGen)
; 274  : 		{
; 275  : 			pTerrain->SetHeightmapTerrain("../data/heightmap.bmp", Vector(0,0,0), Vector(1000,160,1000), 0.4f);
; 276  : 		}
; 277  : 		else
; 278  : 		{
; 279  : 			pTerrain->SetRandomTerrain(Vector(0,0,0), Vector(1000,160,1000), Vector(2048, 2048, 256), 0.4f, rand_seed);
; 280  : 		}
; 281  : 	}*/
; 282  : 	if (kbrd.KeyDown[221] == true)

	movzx	eax, BYTE PTR ?kbrd@@3UKeyboard@@A+221
	cmp	eax, 1
	jne	SHORT $LN6@ProcessKey

; 283  : 	{
; 284  : 		waterHeight += 0.025f;

	fld	DWORD PTR _waterHeight
	fadd	QWORD PTR __real@3f999999a0000000
	fstp	DWORD PTR _waterHeight

; 285  : 		if (waterHeight > 2.0f)

	fld	DWORD PTR _waterHeight
	fcomp	QWORD PTR __real@4000000000000000
	fnstsw	ax
	test	ah, 65					; 00000041H
	jne	SHORT $LN5@ProcessKey

; 286  : 			waterHeight = 2.0f;

	fld	DWORD PTR __real@40000000
	fstp	DWORD PTR _waterHeight
$LN5@ProcessKey:

; 287  : 		pTerrain->SetWaterHeight(waterHeight);

	push	ecx
	fld	DWORD PTR _waterHeight
	fstp	DWORD PTR [esp]
	mov	ecx, DWORD PTR _pTerrain
	call	?SetWaterHeight@Terrain@@QAEXM@Z	; Terrain::SetWaterHeight
$LN6@ProcessKey:

; 288  : 	}
; 289  : 	if (kbrd.KeyDown[219] == true)

	movzx	eax, BYTE PTR ?kbrd@@3UKeyboard@@A+219
	cmp	eax, 1
	jne	SHORT $LN4@ProcessKey

; 290  : 	{
; 291  : 		waterHeight -= 0.025f;

	fld	DWORD PTR _waterHeight
	fsub	QWORD PTR __real@3f999999a0000000
	fstp	DWORD PTR _waterHeight

; 292  : 		if (waterHeight < -1.0f)

	fld	DWORD PTR _waterHeight
	fcomp	QWORD PTR __real@bff0000000000000
	fnstsw	ax
	test	ah, 5
	jp	SHORT $LN3@ProcessKey

; 293  : 			waterHeight = -1.0f;

	fld	DWORD PTR __real@bf800000
	fstp	DWORD PTR _waterHeight
$LN3@ProcessKey:

; 294  : 		pTerrain->SetWaterHeight(waterHeight);

	push	ecx
	fld	DWORD PTR _waterHeight
	fstp	DWORD PTR [esp]
	mov	ecx, DWORD PTR _pTerrain
	call	?SetWaterHeight@Terrain@@QAEXM@Z	; Terrain::SetWaterHeight
$LN4@ProcessKey:

; 295  : 	}
; 296  : 	if (kbrd.KeyDown[188] == true)

	movzx	eax, BYTE PTR ?kbrd@@3UKeyboard@@A+188
	cmp	eax, 1
	jne	SHORT $LN2@ProcessKey

; 297  : 	{
; 298  : 		fLightPos[1] -= 10;

	fld	DWORD PTR ?fLightPos@@3PAMA+4
	fsub	QWORD PTR __real@4024000000000000
	fstp	DWORD PTR ?fLightPos@@3PAMA+4
$LN2@ProcessKey:

; 299  : 	}
; 300  : 	if (kbrd.KeyDown[190] == true)

	movzx	eax, BYTE PTR ?kbrd@@3UKeyboard@@A+190
	cmp	eax, 1
	jne	SHORT $LN1@ProcessKey

; 301  : 	{
; 302  : 		fLightPos[1] += 10;

	fld	DWORD PTR ?fLightPos@@3PAMA+4
	fadd	QWORD PTR __real@4024000000000000
	fstp	DWORD PTR ?fLightPos@@3PAMA+4
$LN1@ProcessKey:

; 303  : 	}
; 304  : 
; 305  : 	return true;

	mov	al, 1

; 306  : }

	pop	edi
	pop	esi
	pop	ebx
	add	esp, 192				; 000000c0H
	cmp	ebp, esp
	call	__RTC_CheckEsp
	mov	esp, ebp
	pop	ebp
	ret	0
?ProcessKey@@YA_NPAUHWND__@@I@Z ENDP			; ProcessKey
_TEXT	ENDS
EXTRN	_strcpy_s:PROC
; Function compile flags: /Odtp /RTCsu /ZI
; File c:\program files (x86)\microsoft visual studio 9.0\vc\include\string.h
;	COMDAT ??$strcpy_s@$09@@YAHAAY09DPBD@Z
_TEXT	SEGMENT
__Dest$ = 8						; size = 4
__Source$ = 12						; size = 4
??$strcpy_s@$09@@YAHAAY09DPBD@Z PROC			; strcpy_s<10>, COMDAT

; 73   : __DEFINE_CPP_OVERLOAD_SECURE_FUNC_0_1(errno_t, strcpy_s, _Deref_post_z_ char, _Dest, _In_z_ const char *, _Source)

	push	ebp
	mov	ebp, esp
	sub	esp, 192				; 000000c0H
	push	ebx
	push	esi
	push	edi
	lea	edi, DWORD PTR [ebp-192]
	mov	ecx, 48					; 00000030H
	mov	eax, -858993460				; ccccccccH
	rep stosd
	mov	eax, DWORD PTR __Source$[ebp]
	push	eax
	push	10					; 0000000aH
	mov	ecx, DWORD PTR __Dest$[ebp]
	push	ecx
	call	_strcpy_s
	add	esp, 12					; 0000000cH
	pop	edi
	pop	esi
	pop	ebx
	add	esp, 192				; 000000c0H
	cmp	ebp, esp
	call	__RTC_CheckEsp
	mov	esp, ebp
	pop	ebp
	ret	0
??$strcpy_s@$09@@YAHAAY09DPBD@Z ENDP			; strcpy_s<10>
_TEXT	ENDS
EXTRN	_vsprintf_s:PROC
; Function compile flags: /Odtp /RTCsu /ZI
; File c:\program files (x86)\microsoft visual studio 9.0\vc\include\stdio.h
;	COMDAT ??$sprintf_s@$0EAA@@@YAHAAY0EAA@DPBDZZ
_TEXT	SEGMENT
__ArgList$ = -8						; size = 4
__Dest$ = 8						; size = 4
__Format$ = 12						; size = 4
??$sprintf_s@$0EAA@@@YAHAAY0EAA@DPBDZZ PROC		; sprintf_s<1024>, COMDAT

; 322  : __DEFINE_CPP_OVERLOAD_SECURE_FUNC_0_1_ARGLIST(int, sprintf_s, vsprintf_s, char, _Dest, _In_z_ _Printf_format_string_ const char *, _Format)

	push	ebp
	mov	ebp, esp
	sub	esp, 204				; 000000ccH
	push	ebx
	push	esi
	push	edi
	lea	edi, DWORD PTR [ebp-204]
	mov	ecx, 51					; 00000033H
	mov	eax, -858993460				; ccccccccH
	rep stosd
	lea	eax, DWORD PTR __Format$[ebp+4]
	mov	DWORD PTR __ArgList$[ebp], eax
	mov	eax, DWORD PTR __ArgList$[ebp]
	push	eax
	mov	ecx, DWORD PTR __Format$[ebp]
	push	ecx
	push	1024					; 00000400H
	mov	edx, DWORD PTR __Dest$[ebp]
	push	edx
	call	_vsprintf_s
	add	esp, 16					; 00000010H
	pop	edi
	pop	esi
	pop	ebx
	add	esp, 204				; 000000ccH
	cmp	ebp, esp
	call	__RTC_CheckEsp
	mov	esp, ebp
	pop	ebp
	ret	0
??$sprintf_s@$0EAA@@@YAHAAY0EAA@DPBDZZ ENDP		; sprintf_s<1024>
_TEXT	ENDS
EXTRN	_atexit:PROC
EXTRN	??0Texture@@QAE@XZ:PROC				; Texture::Texture
; Function compile flags: /Odtp /RTCsu /ZI
; File c:\users\user\desktop\computergraphicsproject\viewer\main.cpp
;	COMDAT ??__EtexHeightmap@@YAXXZ
text$yc	SEGMENT
??__EtexHeightmap@@YAXXZ PROC				; `dynamic initializer for 'texHeightmap'', COMDAT

; 13   : static Texture			 texHeightmap, texTerrain, texDetail, texLightmap;

	push	ebp
	mov	ebp, esp
	sub	esp, 192				; 000000c0H
	push	ebx
	push	esi
	push	edi
	lea	edi, DWORD PTR [ebp-192]
	mov	ecx, 48					; 00000030H
	mov	eax, -858993460				; ccccccccH
	rep stosd
	mov	ecx, OFFSET _texHeightmap
	call	??0Texture@@QAE@XZ			; Texture::Texture
	push	OFFSET ??__FtexHeightmap@@YAXXZ		; `dynamic atexit destructor for 'texHeightmap''
	call	_atexit
	add	esp, 4
	pop	edi
	pop	esi
	pop	ebx
	add	esp, 192				; 000000c0H
	cmp	ebp, esp
	call	__RTC_CheckEsp
	mov	esp, ebp
	pop	ebp
	ret	0
??__EtexHeightmap@@YAXXZ ENDP				; `dynamic initializer for 'texHeightmap''
; Function compile flags: /Odtp /RTCsu /ZI
text$yc	ENDS
;	COMDAT ??__EtexTerrain@@YAXXZ
text$yc	SEGMENT
??__EtexTerrain@@YAXXZ PROC				; `dynamic initializer for 'texTerrain'', COMDAT

; 13   : static Texture			 texHeightmap, texTerrain, texDetail, texLightmap;

	push	ebp
	mov	ebp, esp
	sub	esp, 192				; 000000c0H
	push	ebx
	push	esi
	push	edi
	lea	edi, DWORD PTR [ebp-192]
	mov	ecx, 48					; 00000030H
	mov	eax, -858993460				; ccccccccH
	rep stosd
	mov	ecx, OFFSET _texTerrain
	call	??0Texture@@QAE@XZ			; Texture::Texture
	push	OFFSET ??__FtexTerrain@@YAXXZ		; `dynamic atexit destructor for 'texTerrain''
	call	_atexit
	add	esp, 4
	pop	edi
	pop	esi
	pop	ebx
	add	esp, 192				; 000000c0H
	cmp	ebp, esp
	call	__RTC_CheckEsp
	mov	esp, ebp
	pop	ebp
	ret	0
??__EtexTerrain@@YAXXZ ENDP				; `dynamic initializer for 'texTerrain''
; Function compile flags: /Odtp /RTCsu /ZI
text$yc	ENDS
;	COMDAT ??__EtexDetail@@YAXXZ
text$yc	SEGMENT
??__EtexDetail@@YAXXZ PROC				; `dynamic initializer for 'texDetail'', COMDAT

; 13   : static Texture			 texHeightmap, texTerrain, texDetail, texLightmap;

	push	ebp
	mov	ebp, esp
	sub	esp, 192				; 000000c0H
	push	ebx
	push	esi
	push	edi
	lea	edi, DWORD PTR [ebp-192]
	mov	ecx, 48					; 00000030H
	mov	eax, -858993460				; ccccccccH
	rep stosd
	mov	ecx, OFFSET _texDetail
	call	??0Texture@@QAE@XZ			; Texture::Texture
	push	OFFSET ??__FtexDetail@@YAXXZ		; `dynamic atexit destructor for 'texDetail''
	call	_atexit
	add	esp, 4
	pop	edi
	pop	esi
	pop	ebx
	add	esp, 192				; 000000c0H
	cmp	ebp, esp
	call	__RTC_CheckEsp
	mov	esp, ebp
	pop	ebp
	ret	0
??__EtexDetail@@YAXXZ ENDP				; `dynamic initializer for 'texDetail''
; Function compile flags: /Odtp /RTCsu /ZI
text$yc	ENDS
;	COMDAT ??__EtexLightmap@@YAXXZ
text$yc	SEGMENT
??__EtexLightmap@@YAXXZ PROC				; `dynamic initializer for 'texLightmap'', COMDAT

; 13   : static Texture			 texHeightmap, texTerrain, texDetail, texLightmap;

	push	ebp
	mov	ebp, esp
	sub	esp, 192				; 000000c0H
	push	ebx
	push	esi
	push	edi
	lea	edi, DWORD PTR [ebp-192]
	mov	ecx, 48					; 00000030H
	mov	eax, -858993460				; ccccccccH
	rep stosd
	mov	ecx, OFFSET _texLightmap
	call	??0Texture@@QAE@XZ			; Texture::Texture
	push	OFFSET ??__FtexLightmap@@YAXXZ		; `dynamic atexit destructor for 'texLightmap''
	call	_atexit
	add	esp, 4
	pop	edi
	pop	esi
	pop	ebx
	add	esp, 192				; 000000c0H
	cmp	ebp, esp
	call	__RTC_CheckEsp
	mov	esp, ebp
	pop	ebp
	ret	0
??__EtexLightmap@@YAXXZ ENDP				; `dynamic initializer for 'texLightmap''
text$yc	ENDS
EXTRN	??_L@YGXPAXIHP6EX0@Z1@Z:PROC			; `eh vector constructor iterator'
EXTRN	??1Texture@@QAE@XZ:PROC				; Texture::~Texture
; Function compile flags: /Odtp /RTCsu /ZI
;	COMDAT ??__EtexSkyBox@@YAXXZ
text$yc	SEGMENT
??__EtexSkyBox@@YAXXZ PROC				; `dynamic initializer for 'texSkyBox'', COMDAT

; 14   : static Texture			 texSkyBox[6];

	push	ebp
	mov	ebp, esp
	sub	esp, 192				; 000000c0H
	push	ebx
	push	esi
	push	edi
	lea	edi, DWORD PTR [ebp-192]
	mov	ecx, 48					; 00000030H
	mov	eax, -858993460				; ccccccccH
	rep stosd
	push	OFFSET ??1Texture@@QAE@XZ		; Texture::~Texture
	push	OFFSET ??0Texture@@QAE@XZ		; Texture::Texture
	push	6
	push	4
	push	OFFSET _texSkyBox
	call	??_L@YGXPAXIHP6EX0@Z1@Z
	push	OFFSET ??__FtexSkyBox@@YAXXZ		; `dynamic atexit destructor for 'texSkyBox''
	call	_atexit
	add	esp, 4
	pop	edi
	pop	esi
	pop	ebx
	add	esp, 192				; 000000c0H
	cmp	ebp, esp
	call	__RTC_CheckEsp
	mov	esp, ebp
	pop	ebp
	ret	0
??__EtexSkyBox@@YAXXZ ENDP				; `dynamic initializer for 'texSkyBox''
; Function compile flags: /Odtp /RTCsu /ZI
text$yc	ENDS
;	COMDAT ??__FtexLightmap@@YAXXZ
text$yd	SEGMENT
??__FtexLightmap@@YAXXZ PROC				; `dynamic atexit destructor for 'texLightmap'', COMDAT
	push	ebp
	mov	ebp, esp
	sub	esp, 192				; 000000c0H
	push	ebx
	push	esi
	push	edi
	lea	edi, DWORD PTR [ebp-192]
	mov	ecx, 48					; 00000030H
	mov	eax, -858993460				; ccccccccH
	rep stosd
	mov	ecx, OFFSET _texLightmap
	call	??1Texture@@QAE@XZ			; Texture::~Texture
	pop	edi
	pop	esi
	pop	ebx
	add	esp, 192				; 000000c0H
	cmp	ebp, esp
	call	__RTC_CheckEsp
	mov	esp, ebp
	pop	ebp
	ret	0
??__FtexLightmap@@YAXXZ ENDP				; `dynamic atexit destructor for 'texLightmap''
; Function compile flags: /Odtp /RTCsu /ZI
text$yd	ENDS
;	COMDAT ??__FtexDetail@@YAXXZ
text$yd	SEGMENT
??__FtexDetail@@YAXXZ PROC				; `dynamic atexit destructor for 'texDetail'', COMDAT
	push	ebp
	mov	ebp, esp
	sub	esp, 192				; 000000c0H
	push	ebx
	push	esi
	push	edi
	lea	edi, DWORD PTR [ebp-192]
	mov	ecx, 48					; 00000030H
	mov	eax, -858993460				; ccccccccH
	rep stosd
	mov	ecx, OFFSET _texDetail
	call	??1Texture@@QAE@XZ			; Texture::~Texture
	pop	edi
	pop	esi
	pop	ebx
	add	esp, 192				; 000000c0H
	cmp	ebp, esp
	call	__RTC_CheckEsp
	mov	esp, ebp
	pop	ebp
	ret	0
??__FtexDetail@@YAXXZ ENDP				; `dynamic atexit destructor for 'texDetail''
; Function compile flags: /Odtp /RTCsu /ZI
text$yd	ENDS
;	COMDAT ??__FtexTerrain@@YAXXZ
text$yd	SEGMENT
??__FtexTerrain@@YAXXZ PROC				; `dynamic atexit destructor for 'texTerrain'', COMDAT
	push	ebp
	mov	ebp, esp
	sub	esp, 192				; 000000c0H
	push	ebx
	push	esi
	push	edi
	lea	edi, DWORD PTR [ebp-192]
	mov	ecx, 48					; 00000030H
	mov	eax, -858993460				; ccccccccH
	rep stosd
	mov	ecx, OFFSET _texTerrain
	call	??1Texture@@QAE@XZ			; Texture::~Texture
	pop	edi
	pop	esi
	pop	ebx
	add	esp, 192				; 000000c0H
	cmp	ebp, esp
	call	__RTC_CheckEsp
	mov	esp, ebp
	pop	ebp
	ret	0
??__FtexTerrain@@YAXXZ ENDP				; `dynamic atexit destructor for 'texTerrain''
; Function compile flags: /Odtp /RTCsu /ZI
text$yd	ENDS
;	COMDAT ??__FtexHeightmap@@YAXXZ
text$yd	SEGMENT
??__FtexHeightmap@@YAXXZ PROC				; `dynamic atexit destructor for 'texHeightmap'', COMDAT
	push	ebp
	mov	ebp, esp
	sub	esp, 192				; 000000c0H
	push	ebx
	push	esi
	push	edi
	lea	edi, DWORD PTR [ebp-192]
	mov	ecx, 48					; 00000030H
	mov	eax, -858993460				; ccccccccH
	rep stosd
	mov	ecx, OFFSET _texHeightmap
	call	??1Texture@@QAE@XZ			; Texture::~Texture
	pop	edi
	pop	esi
	pop	ebx
	add	esp, 192				; 000000c0H
	cmp	ebp, esp
	call	__RTC_CheckEsp
	mov	esp, ebp
	pop	ebp
	ret	0
??__FtexHeightmap@@YAXXZ ENDP				; `dynamic atexit destructor for 'texHeightmap''
text$yd	ENDS
EXTRN	??_M@YGXPAXIHP6EX0@Z@Z:PROC			; `eh vector destructor iterator'
; Function compile flags: /Odtp /RTCsu /ZI
;	COMDAT ??__FtexSkyBox@@YAXXZ
text$yd	SEGMENT
??__FtexSkyBox@@YAXXZ PROC				; `dynamic atexit destructor for 'texSkyBox'', COMDAT
	push	ebp
	mov	ebp, esp
	sub	esp, 192				; 000000c0H
	push	ebx
	push	esi
	push	edi
	lea	edi, DWORD PTR [ebp-192]
	mov	ecx, 48					; 00000030H
	mov	eax, -858993460				; ccccccccH
	rep stosd
	push	OFFSET ??1Texture@@QAE@XZ		; Texture::~Texture
	push	6
	push	4
	push	OFFSET _texSkyBox
	call	??_M@YGXPAXIHP6EX0@Z@Z
	pop	edi
	pop	esi
	pop	ebx
	add	esp, 192				; 000000c0H
	cmp	ebp, esp
	call	__RTC_CheckEsp
	mov	esp, ebp
	pop	ebp
	ret	0
??__FtexSkyBox@@YAXXZ ENDP				; `dynamic atexit destructor for 'texSkyBox''
text$yd	ENDS
_BSS	SEGMENT
_texTerrain DD	01H DUP (?)
_texHeightmap DD 01H DUP (?)
_texLightmap DD	01H DUP (?)
_texSkyBox DD	06H DUP (?)
_texDetail DD	01H DUP (?)
_BSS	ENDS
CRT$XCU	SEGMENT
_texHeightmap$initializer$ DD FLAT:??__EtexHeightmap@@YAXXZ
_texTerrain$initializer$ DD FLAT:??__EtexTerrain@@YAXXZ
_texDetail$initializer$ DD FLAT:??__EtexDetail@@YAXXZ
_texLightmap$initializer$ DD FLAT:??__EtexLightmap@@YAXXZ
_texSkyBox$initializer$ DD FLAT:??__EtexSkyBox@@YAXXZ
CRT$XCU	ENDS
END
